canterp.so:_ZN7Canterp10call_levelEv
canterp.so:_ZN7Canterp10error_textEiPcm
canterp.so:_ZN7Canterp10stack_nameEiPcm
canterp.so:_ZN7Canterp11line_lengthEv
canterp.so:_ZN7Canterp12active_modesEPiS0_PdRK8StateTag
canterp.so:_ZN7Canterp12set_loglevelEi
canterp.so:_ZN7Canterp14active_g_codesEPi
canterp.so:_ZN7Canterp14active_m_codesEPi
canterp.so:_ZN7Canterp15active_settingsEPd
canterp.so:_ZN7Canterp15print_state_tagERK8StateTag
canterp.so:_ZN7Canterp15sequence_numberEv
canterp.so:_ZN7Canterp16restore_from_tagERK8StateTag
canterp.so:_ZN7Canterp20set_loop_on_main_m99Eb
canterp.so:_ZN7Canterp4exitEv
canterp.so:_ZN7Canterp4fileEPcm
canterp.so:_ZN7Canterp4initEv
canterp.so:_ZN7Canterp4lineEv
canterp.so:_ZN7Canterp4openEPKc
canterp.so:_ZN7Canterp4readEPKc
canterp.so:_ZN7Canterp4readEv
canterp.so:_ZN7Canterp5closeEv
canterp.so:_ZN7Canterp5resetEv
canterp.so:_ZN7Canterp5synchEv
canterp.so:_ZN7Canterp7commandEPcm
canterp.so:_ZN7Canterp7executeEPKc
canterp.so:_ZN7Canterp7executeEPKci
canterp.so:_ZN7Canterp7executeEv
canterp.so:_ZN7Canterp8ini_loadEPKc
canterp.so:_ZN7Canterp8on_abortEiPKc
canterp.so:_ZN7Canterp9file_nameEPcm
canterp.so:_ZN7Canterp9line_textEPcm
canterp.so:makeInterp
liblinuxcnchal.so.0:default_rtapi_msg_handler
liblinuxcnchal.so.0:hal_add_funct_to_thread
liblinuxcnchal.so.0:hal_comp_name
liblinuxcnchal.so.0:hal_del_funct_from_thread
liblinuxcnchal.so.0:hal_exit
liblinuxcnchal.so.0:hal_get_lock
liblinuxcnchal.so.0:hal_get_param_value_by_name
liblinuxcnchal.so.0:hal_get_pin_value_by_name
liblinuxcnchal.so.0:hal_get_signal_value_by_name
liblinuxcnchal.so.0:hal_init
liblinuxcnchal.so.0:hal_link
liblinuxcnchal.so.0:hal_malloc
liblinuxcnchal.so.0:hal_param_alias
liblinuxcnchal.so.0:hal_param_bit_new
liblinuxcnchal.so.0:hal_param_bit_newf
liblinuxcnchal.so.0:hal_param_bit_set
liblinuxcnchal.so.0:hal_param_float_new
liblinuxcnchal.so.0:hal_param_float_newf
liblinuxcnchal.so.0:hal_param_float_set
liblinuxcnchal.so.0:hal_param_new
liblinuxcnchal.so.0:hal_param_s32_new
liblinuxcnchal.so.0:hal_param_s32_newf
liblinuxcnchal.so.0:hal_param_s32_set
liblinuxcnchal.so.0:hal_param_set
liblinuxcnchal.so.0:hal_param_u32_new
liblinuxcnchal.so.0:hal_param_u32_newf
liblinuxcnchal.so.0:hal_param_u32_set
liblinuxcnchal.so.0:hal_pin_alias
liblinuxcnchal.so.0:hal_pin_bit_new
liblinuxcnchal.so.0:hal_pin_bit_newf
liblinuxcnchal.so.0:hal_pin_float_new
liblinuxcnchal.so.0:hal_pin_float_newf
liblinuxcnchal.so.0:hal_pin_new
liblinuxcnchal.so.0:hal_pin_port_new
liblinuxcnchal.so.0:hal_pin_port_newf
liblinuxcnchal.so.0:hal_pin_s32_new
liblinuxcnchal.so.0:hal_pin_s32_newf
liblinuxcnchal.so.0:hal_pin_u32_new
liblinuxcnchal.so.0:hal_pin_u32_newf
liblinuxcnchal.so.0:hal_port_alloc
liblinuxcnchal.so.0:hal_port_buffer_size
liblinuxcnchal.so.0:hal_port_clear
liblinuxcnchal.so.0:hal_port_peek
liblinuxcnchal.so.0:hal_port_peek_commit
liblinuxcnchal.so.0:hal_port_read
liblinuxcnchal.so.0:hal_port_readable
liblinuxcnchal.so.0:hal_port_wait_readable
liblinuxcnchal.so.0:hal_port_wait_writable
liblinuxcnchal.so.0:hal_port_writable
liblinuxcnchal.so.0:hal_port_write
liblinuxcnchal.so.0:hal_ready
liblinuxcnchal.so.0:hal_set_lock
liblinuxcnchal.so.0:hal_set_unready
liblinuxcnchal.so.0:hal_signal_delete
liblinuxcnchal.so.0:hal_signal_new
liblinuxcnchal.so.0:hal_start_threads
liblinuxcnchal.so.0:hal_stop_threads
liblinuxcnchal.so.0:hal_stream_attach
liblinuxcnchal.so.0:hal_stream_create
liblinuxcnchal.so.0:hal_stream_depth
liblinuxcnchal.so.0:hal_stream_destroy
liblinuxcnchal.so.0:hal_stream_detach
liblinuxcnchal.so.0:hal_stream_element_count
liblinuxcnchal.so.0:hal_stream_element_type
liblinuxcnchal.so.0:hal_stream_maxdepth
liblinuxcnchal.so.0:hal_stream_num_overruns
liblinuxcnchal.so.0:hal_stream_num_underruns
liblinuxcnchal.so.0:hal_stream_read
liblinuxcnchal.so.0:hal_stream_readable
liblinuxcnchal.so.0:hal_stream_wait_readable
liblinuxcnchal.so.0:hal_stream_wait_writable
liblinuxcnchal.so.0:hal_stream_writable
liblinuxcnchal.so.0:hal_stream_write
liblinuxcnchal.so.0:hal_unlink
liblinuxcnchal.so.0:hal_unready
liblinuxcnchal.so.0:halpr_alloc_comp_struct
liblinuxcnchal.so.0:halpr_find_comp_by_id
liblinuxcnchal.so.0:halpr_find_comp_by_name
liblinuxcnchal.so.0:halpr_find_funct_by_name
liblinuxcnchal.so.0:halpr_find_funct_by_owner
liblinuxcnchal.so.0:halpr_find_param_by_name
liblinuxcnchal.so.0:halpr_find_param_by_owner
liblinuxcnchal.so.0:halpr_find_pin_by_name
liblinuxcnchal.so.0:halpr_find_pin_by_owner
liblinuxcnchal.so.0:halpr_find_pin_by_sig
liblinuxcnchal.so.0:halpr_find_sig_by_name
liblinuxcnchal.so.0:halpr_find_thread_by_name
liblinuxcnchal.so.0:halpr_parse_types
liblinuxcnchal.so.0:list_add_after
liblinuxcnchal.so.0:list_add_before
liblinuxcnchal.so.0:list_init_entry
liblinuxcnchal.so.0:list_next
liblinuxcnchal.so.0:list_prev
liblinuxcnchal.so.0:list_remove_entry
liblinuxcnchal.so.0:rtapi_delay
liblinuxcnchal.so.0:rtapi_delay_max
liblinuxcnchal.so.0:rtapi_exit
liblinuxcnchal.so.0:rtapi_fifo_delete
liblinuxcnchal.so.0:rtapi_fifo_new
liblinuxcnchal.so.0:rtapi_fifo_read
liblinuxcnchal.so.0:rtapi_fifo_write
liblinuxcnchal.so.0:rtapi_get_clocks
liblinuxcnchal.so.0:rtapi_get_msg_handler
liblinuxcnchal.so.0:rtapi_get_msg_level
liblinuxcnchal.so.0:rtapi_get_time
liblinuxcnchal.so.0:rtapi_init
liblinuxcnchal.so.0:rtapi_is_kernelspace
liblinuxcnchal.so.0:rtapi_is_realtime
liblinuxcnchal.so.0:rtapi_print
liblinuxcnchal.so.0:rtapi_print_msg
liblinuxcnchal.so.0:rtapi_set_msg_handler
liblinuxcnchal.so.0:rtapi_set_msg_level
liblinuxcnchal.so.0:rtapi_shmem_delete
liblinuxcnchal.so.0:rtapi_shmem_getptr
liblinuxcnchal.so.0:rtapi_shmem_new
liblinuxcnchal.so.0:rtapi_snprintf
liblinuxcnchal.so.0:rtapi_vsnprintf
liblinuxcncini.so.0:TildeExpansion
liblinuxcncini.so.0:_ZN7IniFile10AfterEqualEPKc
liblinuxcncini.so.0:_ZN7IniFile10FindStringEPcmPKcS2_iPi
liblinuxcncini.so.0:_ZN7IniFile11CheckIfOpenEv
liblinuxcncini.so.0:_ZN7IniFile14ThrowExceptionENS_9ErrorCodeE
liblinuxcncini.so.0:_ZN7IniFile14TildeExpansionEPKcPcm
liblinuxcncini.so.0:_ZN7IniFile4FindEPKcS1_iPi
liblinuxcncini.so.0:_ZN7IniFile4FindEPdPNS_13StrDoublePairEPKcS4_iPi
liblinuxcncini.so.0:_ZN7IniFile4FindEPiPNS_10StrIntPairEPKcS4_iS0_
liblinuxcncini.so.0:_ZN7IniFile4OpenEPKc
liblinuxcncini.so.0:_ZN7IniFile5CloseEv
liblinuxcncini.so.0:_ZN7IniFile8FindPathEPcmPKcS2_iPi
liblinuxcncini.so.0:_ZN7IniFile8LockFileEv
liblinuxcncini.so.0:_ZN7IniFile9Exception5PrintEP8_IO_FILE
liblinuxcncini.so.0:_ZN7IniFile9SkipWhiteEPKc
liblinuxcncini.so.0:_ZN7IniFileC1EiP8_IO_FILE
liblinuxcncini.so.0:_ZN7IniFileC2EiP8_IO_FILE
liblinuxcncini.so.0:iniFind
liblinuxcncini.so.0:iniFindDouble
liblinuxcncini.so.0:iniFindInt
libnml.so.0:_Z11safe_strlenPci
libnml.so.0:_Z12logTextToNMLP3NMLPKcz
libnml.so.0:_Z14mem_get_accessP17mem_access_object
libnml.so.0:_Z14nmlErrorFormatiPvP3CMS
libnml.so.0:_Z15run_nml_serversv
libnml.so.0:_Z16kill_nml_serversv
libnml.so.0:_Z16wait_for_serversi
libnml.so.0:_Z17output_print_listPFiPcE
libnml.so.0:_Z17spawn_nml_serversv
libnml.so.0:_Z18RCS_CMD_MSG_formatiPvP3CMS
libnml.so.0:_Z18get_rcs_print_listv
libnml.so.0:_Z18mem_release_accessP17mem_access_object
libnml.so.0:_Z18set_rcs_print_filePc
libnml.so.0:_Z19RCS_STAT_MSG_formatiPvP3CMS
libnml.so.0:_Z19run_nml_server_exiti
libnml.so.0:_Z20blocking_thread_killl
libnml.so.0:_Z22set_tcp_socket_optionsi
libnml.so.0:_Z22tcpmem_sigpipe_handleri
libnml.so.0:_Z24cms_check_for_host_aliasPc
libnml.so.0:_Z24make_tcp_socket_blockingi
libnml.so.0:_Z25set_rcs_print_list_sizingi16LIST_SIZING_MODE
libnml.so.0:_Z26find_proc_and_buffer_linesP20CONFIG_SEARCH_STRUCT
libnml.so.0:_Z26get_loaded_nml_config_filePKc
libnml.so.0:_Z26unload_all_nml_config_filev
libnml.so.0:_Z27make_tcp_socket_nonblockingi
libnml.so.0:_Z30tcpsvr_handle_blocking_requestPv
libnml.so.0:_Z45tcpsvr_handle_blocking_request_sigint_handleri
libnml.so.0:_ZN10CMS_SERVER11kill_serverEv
libnml.so.0:_ZN10CMS_SERVER13get_user_infoEPKcS1_
libnml.so.0:_ZN10CMS_SERVER13set_diag_infoEP28REMOTE_SET_DIAG_INFO_REQUEST
libnml.so.0:_ZN10CMS_SERVER14add_local_portEP21CMS_SERVER_LOCAL_PORT
libnml.so.0:_ZN10CMS_SERVER14gen_random_keyEPci
libnml.so.0:_ZN10CMS_SERVER14security_checkEP13CMS_USER_INFOi
libnml.so.0:_ZN10CMS_SERVER15find_local_portEl
libnml.so.0:_ZN10CMS_SERVER15get_access_typeEv
libnml.so.0:_ZN10CMS_SERVER15get_buffer_nameEi
libnml.so.0:_ZN10CMS_SERVER15process_requestEP18REMOTE_CMS_REQUEST
libnml.so.0:_ZN10CMS_SERVER15register_serverEi
libnml.so.0:_ZN10CMS_SERVER15reset_diag_infoEi
libnml.so.0:_ZN10CMS_SERVER16delete_from_listEv
libnml.so.0:_ZN10CMS_SERVER16get_message_typeEv
libnml.so.0:_ZN10CMS_SERVER17unregister_serverEv
libnml.so.0:_ZN10CMS_SERVER21accept_local_port_cmsEP3CMS
libnml.so.0:_ZN10CMS_SERVER22delete_all_local_portsEv
libnml.so.0:_ZN10CMS_SERVER22get_total_subdivisionsEl
libnml.so.0:_ZN10CMS_SERVER30initialize_write_request_spaceEv
libnml.so.0:_ZN10CMS_SERVER3runEi
libnml.so.0:_ZN10CMS_SERVER5cleanEi
libnml.so.0:_ZN10CMS_SERVER5spawnEv
libnml.so.0:_ZN10CMS_SERVER9find_userEPKc
libnml.so.0:_ZN10CMS_SERVERC1Ev
libnml.so.0:_ZN10CMS_SERVERC2Ev
libnml.so.0:_ZN10CMS_SERVERD0Ev
libnml.so.0:_ZN10CMS_SERVERD1Ev
libnml.so.0:_ZN10CMS_SERVERD2Ev
libnml.so.0:_ZN10LinkedList10flush_listEv
libnml.so.0:_ZN10LinkedList11delete_nodeEi
libnml.so.0:_ZN10LinkedList13retrieve_headEv
libnml.so.0:_ZN10LinkedList13retrieve_tailEv
libnml.so.0:_ZN10LinkedList13store_at_headEPvmi
libnml.so.0:_ZN10LinkedList13store_at_tailEPvmi
libnml.so.0:_ZN10LinkedList14delete_membersEv
libnml.so.0:_ZN10LinkedList14get_current_idEv
libnml.so.0:_ZN10LinkedList14get_last_newerEi
libnml.so.0:_ZN10LinkedList15get_first_newerEi
libnml.so.0:_ZN10LinkedList19delete_current_nodeEv
libnml.so.0:_ZN10LinkedList20set_list_sizing_modeEi16LIST_SIZING_MODE
libnml.so.0:_ZN10LinkedList24store_after_current_nodeEPvmi
libnml.so.0:_ZN10LinkedList25store_before_current_nodeEPvmi
libnml.so.0:_ZN10LinkedList8get_headEv
libnml.so.0:_ZN10LinkedList8get_lastEv
libnml.so.0:_ZN10LinkedList8get_nextEv
libnml.so.0:_ZN10LinkedList8get_tailEv
libnml.so.0:_ZN10LinkedList8is_emptyEv
libnml.so.0:_ZN10LinkedList9get_by_idEi
libnml.so.0:_ZN10LinkedListC1ERS_
libnml.so.0:_ZN10LinkedListC1Ev
libnml.so.0:_ZN10LinkedListC2ERS_
libnml.so.0:_ZN10LinkedListC2Ev
libnml.so.0:_ZN10LinkedListD1Ev
libnml.so.0:_ZN10LinkedListD2Ev
libnml.so.0:_ZN10NML_MODULE10controllerEv
libnml.so.0:_ZN10NML_MODULE10loadDclockEd
libnml.so.0:_ZN10NML_MODULE10setLogInfoEPKci
libnml.so.0:_ZN10NML_MODULE10stateMatchEPciii
libnml.so.0:_ZN10NML_MODULE10stateMatchEii
libnml.so.0:_ZN10NML_MODULE11PRE_PROCESSEv
libnml.so.0:_ZN10NML_MODULE11checkDclockEv
libnml.so.0:_ZN10NML_MODULE11sendCommandEP11RCS_CMD_MSGi
libnml.so.0:_ZN10NML_MODULE12POST_PROCESSEv
libnml.so.0:_ZN10NML_MODULE13modifyCommandEP11RCS_CMD_MSGi
libnml.so.0:_ZN10NML_MODULE13setCmdChannelEP15RCS_CMD_CHANNEL
libnml.so.0:_ZN10NML_MODULE14addSubordinateEP15RCS_CMD_CHANNELP16RCS_STAT_CHANNEL
libnml.so.0:_ZN10NML_MODULE14requestDisplayEPKc
libnml.so.0:_ZN10NML_MODULE14setSelfCommandEP11RCS_CMD_MSG
libnml.so.0:_ZN10NML_MODULE14setStatChannelEP16RCS_STAT_CHANNELP12RCS_STAT_MSG
libnml.so.0:_ZN10NML_MODULE15read_command_inEv
libnml.so.0:_ZN10NML_MODULE15setSubordinatesEi
libnml.so.0:_ZN10NML_MODULE16DECISION_PROCESSEv
libnml.so.0:_ZN10NML_MODULE16print_statisticsEv
libnml.so.0:_ZN10NML_MODULE16write_status_outEv
libnml.so.0:_ZN10NML_MODULE16zero_common_varsEv
libnml.so.0:_ZN10NML_MODULE17READ_COMM_BUFFERSEv
libnml.so.0:_ZN10NML_MODULE17set_file_and_lineEPci
libnml.so.0:_ZN10NML_MODULE18WRITE_COMM_BUFFERSEv
libnml.so.0:_ZN10NML_MODULE18setErrorLogChannelEP3NML
libnml.so.0:_ZN10NML_MODULE20check_cycle_time_endEv
libnml.so.0:_ZN10NML_MODULE20check_if_new_commandEv
libnml.so.0:_ZN10NML_MODULE22check_cycle_time_startEv
libnml.so.0:_ZN10NML_MODULE24read_subordinates_statusEv
libnml.so.0:_ZN10NML_MODULE30write_commands_to_subordinatesEv
libnml.so.0:_ZN10NML_MODULE7logTextEPKcz
libnml.so.0:_ZN10NML_MODULE8logErrorEPKcz
libnml.so.0:_ZN10NML_MODULE9stateNextE9RCS_STATE
libnml.so.0:_ZN10NML_MODULE9stateNextEi
libnml.so.0:_ZN10NML_MODULEC1EPKcS1_
libnml.so.0:_ZN10NML_MODULEC1Ev
libnml.so.0:_ZN10NML_MODULEC2EPKcS1_
libnml.so.0:_ZN10NML_MODULEC2Ev
libnml.so.0:_ZN10NML_MODULED0Ev
libnml.so.0:_ZN10NML_MODULED1Ev
libnml.so.0:_ZN10NML_MODULED2Ev
libnml.so.0:_ZN10NML_SERVER16delete_from_listEv
libnml.so.0:_ZN10NML_SERVER22add_to_nml_server_listEv
libnml.so.0:_ZN10NML_SERVERC1EP3NMLi
libnml.so.0:_ZN10NML_SERVERC2EP3NMLi
libnml.so.0:_ZN10NML_SERVERD0Ev
libnml.so.0:_ZN10NML_SERVERD1Ev
libnml.so.0:_ZN10NML_SERVERD2Ev
libnml.so.0:_ZN10PHANTOMMEM11main_accessEPvPi
libnml.so.0:_ZN10PHANTOMMEMC1EPKcS1_
libnml.so.0:_ZN10PHANTOMMEMC2EPKcS1_
libnml.so.0:_ZN10PHANTOMMEMD0Ev
libnml.so.0:_ZN10PHANTOMMEMD1Ev
libnml.so.0:_ZN10PHANTOMMEMD2Ev
libnml.so.0:_ZN11CMS_UPDATER13check_pointerEPcl
libnml.so.0:_ZN11CMS_UPDATER16set_encoded_dataEPvl
libnml.so.0:_ZN11CMS_UPDATER6rewindEv
libnml.so.0:_ZN11CMS_UPDATER8get_modeEv
libnml.so.0:_ZN11CMS_UPDATER8set_modeE16CMS_UPDATER_MODE
libnml.so.0:_ZN11CMS_UPDATERC1EP3CMSil
libnml.so.0:_ZN11CMS_UPDATERC2EP3CMSil
libnml.so.0:_ZN11CMS_UPDATERD0Ev
libnml.so.0:_ZN11CMS_UPDATERD1Ev
libnml.so.0:_ZN11CMS_UPDATERD2Ev
libnml.so.0:_ZN11NML_DISPLAY6updateEP3CMS
libnml.so.0:_ZN11RCS_CMD_MSGC1Eil
libnml.so.0:_ZN11RCS_CMD_MSGC2Eil
libnml.so.0:_ZN12RCS_STAT_MSGC1Eim
libnml.so.0:_ZN12RCS_STAT_MSGC2Eim
libnml.so.0:_ZN13CMS_USER_INFOC1Ev
libnml.so.0:_ZN13CMS_USER_INFOC2Ev
libnml.so.0:_ZN13RCS_SEMAPHORE4postEv
libnml.so.0:_ZN13RCS_SEMAPHORE4waitEv
libnml.so.0:_ZN13RCS_SEMAPHORE5clearEv
libnml.so.0:_ZN13RCS_SEMAPHORE5flushEv
libnml.so.0:_ZN13RCS_SEMAPHORE5validEv
libnml.so.0:_ZN13RCS_SEMAPHORE7setflagEi
libnml.so.0:_ZN13RCS_SEMAPHORE7trywaitEv
libnml.so.0:_ZN13RCS_SEMAPHOREC1ERS_
libnml.so.0:_ZN13RCS_SEMAPHOREC1Eiidii
libnml.so.0:_ZN13RCS_SEMAPHOREC2ERS_
libnml.so.0:_ZN13RCS_SEMAPHOREC2Eiidii
libnml.so.0:_ZN13RCS_SEMAPHORED1Ev
libnml.so.0:_ZN13RCS_SEMAPHORED2Ev
libnml.so.0:_ZN13RCS_SHAREDMEM6nattchEv
libnml.so.0:_ZN13RCS_SHAREDMEMC1ERS_
libnml.so.0:_ZN13RCS_SHAREDMEMC1Eimii
libnml.so.0:_ZN13RCS_SHAREDMEMC2ERS_
libnml.so.0:_ZN13RCS_SHAREDMEMC2Eimii
libnml.so.0:_ZN13RCS_SHAREDMEMD1Ev
libnml.so.0:_ZN13RCS_SHAREDMEMD2Ev
libnml.so.0:_ZN14LinkedListNodeC1EPvm
libnml.so.0:_ZN14LinkedListNodeC2EPvm
libnml.so.0:_ZN14LinkedListNodeD1Ev
libnml.so.0:_ZN14LinkedListNodeD2Ev
libnml.so.0:_ZN14PHYSMEM_HANDLE10set_to_ptrEPvl
libnml.so.0:_ZN14PHYSMEM_HANDLE12clear_memoryEv
libnml.so.0:_ZN14PHYSMEM_HANDLE4readEPvl
libnml.so.0:_ZN14PHYSMEM_HANDLE5validEv
libnml.so.0:_ZN14PHYSMEM_HANDLE5writeEPvl
libnml.so.0:_ZN14PHYSMEM_HANDLE7memsetfElcl
libnml.so.0:_ZN14PHYSMEM_HANDLEC1Emll
libnml.so.0:_ZN14PHYSMEM_HANDLEC1Ev
libnml.so.0:_ZN14PHYSMEM_HANDLEC2Emll
libnml.so.0:_ZN14PHYSMEM_HANDLEC2Ev
libnml.so.0:_ZN14PHYSMEM_HANDLED0Ev
libnml.so.0:_ZN14PHYSMEM_HANDLED1Ev
libnml.so.0:_ZN14PHYSMEM_HANDLED2Ev
libnml.so.0:_ZN15CLIENT_TCP_PORTC1Ev
libnml.so.0:_ZN15CLIENT_TCP_PORTC2Ev
libnml.so.0:_ZN15CLIENT_TCP_PORTD1Ev
libnml.so.0:_ZN15CLIENT_TCP_PORTD2Ev
libnml.so.0:_ZN15CMS_XDR_UPDATER13check_pointerEPcl
libnml.so.0:_ZN15CMS_XDR_UPDATER16set_encoded_dataEPvl
libnml.so.0:_ZN15CMS_XDR_UPDATER20get_encoded_msg_sizeEv
libnml.so.0:_ZN15CMS_XDR_UPDATER6rewindEv
libnml.so.0:_ZN15CMS_XDR_UPDATER6updateEPcj
libnml.so.0:_ZN15CMS_XDR_UPDATER6updateEPdj
libnml.so.0:_ZN15CMS_XDR_UPDATER6updateEPej
libnml.so.0:_ZN15CMS_XDR_UPDATER6updateEPfj
libnml.so.0:_ZN15CMS_XDR_UPDATER6updateEPhj
libnml.so.0:_ZN15CMS_XDR_UPDATER6updateEPij
libnml.so.0:_ZN15CMS_XDR_UPDATER6updateEPjj
libnml.so.0:_ZN15CMS_XDR_UPDATER6updateEPlj
libnml.so.0:_ZN15CMS_XDR_UPDATER6updateEPmj
libnml.so.0:_ZN15CMS_XDR_UPDATER6updateEPsj
libnml.so.0:_ZN15CMS_XDR_UPDATER6updateEPtj
libnml.so.0:_ZN15CMS_XDR_UPDATER6updateERb
libnml.so.0:_ZN15CMS_XDR_UPDATER6updateERc
libnml.so.0:_ZN15CMS_XDR_UPDATER6updateERd
libnml.so.0:_ZN15CMS_XDR_UPDATER6updateERe
libnml.so.0:_ZN15CMS_XDR_UPDATER6updateERf
libnml.so.0:_ZN15CMS_XDR_UPDATER6updateERh
libnml.so.0:_ZN15CMS_XDR_UPDATER6updateERi
libnml.so.0:_ZN15CMS_XDR_UPDATER6updateERj
libnml.so.0:_ZN15CMS_XDR_UPDATER6updateERl
libnml.so.0:_ZN15CMS_XDR_UPDATER6updateERm
libnml.so.0:_ZN15CMS_XDR_UPDATER6updateERs
libnml.so.0:_ZN15CMS_XDR_UPDATER6updateERt
libnml.so.0:_ZN15CMS_XDR_UPDATER8set_modeE16CMS_UPDATER_MODE
libnml.so.0:_ZN15CMS_XDR_UPDATERC1EP3CMS
libnml.so.0:_ZN15CMS_XDR_UPDATERC2EP3CMS
libnml.so.0:_ZN15CMS_XDR_UPDATERD0Ev
libnml.so.0:_ZN15CMS_XDR_UPDATERD1Ev
libnml.so.0:_ZN15CMS_XDR_UPDATERD2Ev
libnml.so.0:_ZN15RCS_CMD_CHANNEL5writeEP11RCS_CMD_MSG
libnml.so.0:_ZN15RCS_CMD_CHANNELC1EPFiiPvP3CMSEPKcS6_S6_i
libnml.so.0:_ZN15RCS_CMD_CHANNELC2EPFiiPvP3CMSEPKcS6_S6_i
libnml.so.0:_ZN15RCS_CMD_CHANNELD0Ev
libnml.so.0:_ZN15RCS_CMD_CHANNELD1Ev
libnml.so.0:_ZN15RCS_CMD_CHANNELD2Ev
libnml.so.0:_ZN15RCS_GENERIC_CMD6updateEP3CMS
libnml.so.0:_ZN15RCS_GENERIC_CMDC1Ev
libnml.so.0:_ZN15RCS_GENERIC_CMDC2Ev
libnml.so.0:_ZN16NML_SUPER_SERVER11add_to_listEP10NML_SERVER
libnml.so.0:_ZN16NML_SUPER_SERVER11add_to_listEP3NML
libnml.so.0:_ZN16NML_SUPER_SERVER16kill_all_serversEv
libnml.so.0:_ZN16NML_SUPER_SERVER17spawn_all_serversEv
libnml.so.0:_ZN16NML_SUPER_SERVER18delete_all_serversEv
libnml.so.0:_ZN16NML_SUPER_SERVERC1Ev
libnml.so.0:_ZN16NML_SUPER_SERVERC2Ev
libnml.so.0:_ZN16NML_SUPER_SERVERD1Ev
libnml.so.0:_ZN16NML_SUPER_SERVERD2Ev
libnml.so.0:_ZN16RCS_STAT_CHANNELC1EPFiiPvP3CMSEPKcS6_S6_i
libnml.so.0:_ZN16RCS_STAT_CHANNELC2EPFiiPvP3CMSEPKcS6_S6_i
libnml.so.0:_ZN16RCS_STAT_CHANNELD0Ev
libnml.so.0:_ZN16RCS_STAT_CHANNELD1Ev
libnml.so.0:_ZN16RCS_STAT_CHANNELD2Ev
libnml.so.0:_ZN17CMS_ASCII_UPDATER13check_pointerEPcl
libnml.so.0:_ZN17CMS_ASCII_UPDATER20get_encoded_msg_sizeEv
libnml.so.0:_ZN17CMS_ASCII_UPDATER6rewindEv
libnml.so.0:_ZN17CMS_ASCII_UPDATER6updateEPcj
libnml.so.0:_ZN17CMS_ASCII_UPDATER6updateEPdj
libnml.so.0:_ZN17CMS_ASCII_UPDATER6updateEPej
libnml.so.0:_ZN17CMS_ASCII_UPDATER6updateEPfj
libnml.so.0:_ZN17CMS_ASCII_UPDATER6updateEPhj
libnml.so.0:_ZN17CMS_ASCII_UPDATER6updateEPij
libnml.so.0:_ZN17CMS_ASCII_UPDATER6updateEPjj
libnml.so.0:_ZN17CMS_ASCII_UPDATER6updateEPlj
libnml.so.0:_ZN17CMS_ASCII_UPDATER6updateEPmj
libnml.so.0:_ZN17CMS_ASCII_UPDATER6updateEPsj
libnml.so.0:_ZN17CMS_ASCII_UPDATER6updateEPtj
libnml.so.0:_ZN17CMS_ASCII_UPDATER6updateERb
libnml.so.0:_ZN17CMS_ASCII_UPDATER6updateERc
libnml.so.0:_ZN17CMS_ASCII_UPDATER6updateERd
libnml.so.0:_ZN17CMS_ASCII_UPDATER6updateERe
libnml.so.0:_ZN17CMS_ASCII_UPDATER6updateERf
libnml.so.0:_ZN17CMS_ASCII_UPDATER6updateERh
libnml.so.0:_ZN17CMS_ASCII_UPDATER6updateERi
libnml.so.0:_ZN17CMS_ASCII_UPDATER6updateERj
libnml.so.0:_ZN17CMS_ASCII_UPDATER6updateERl
libnml.so.0:_ZN17CMS_ASCII_UPDATER6updateERm
libnml.so.0:_ZN17CMS_ASCII_UPDATER6updateERs
libnml.so.0:_ZN17CMS_ASCII_UPDATER6updateERt
libnml.so.0:_ZN17CMS_ASCII_UPDATER8set_modeE16CMS_UPDATER_MODE
libnml.so.0:_ZN17CMS_ASCII_UPDATERC1EP3CMS
libnml.so.0:_ZN17CMS_ASCII_UPDATERC2EP3CMS
libnml.so.0:_ZN17CMS_ASCII_UPDATERD0Ev
libnml.so.0:_ZN17CMS_ASCII_UPDATERD1Ev
libnml.so.0:_ZN17CMS_ASCII_UPDATERD2Ev
libnml.so.0:_ZN18RCS_GENERIC_STATUS6updateEP3CMS
libnml.so.0:_ZN18RCS_GENERIC_STATUSC1Ev
libnml.so.0:_ZN18RCS_GENERIC_STATUSC2Ev
libnml.so.0:_ZN20CMS_DIAGNOSTICS_INFOC1Ev
libnml.so.0:_ZN20CMS_DIAGNOSTICS_INFOC2Ev
libnml.so.0:_ZN20CMS_DIAGNOSTICS_INFOD0Ev
libnml.so.0:_ZN20CMS_DIAGNOSTICS_INFOD1Ev
libnml.so.0:_ZN20CMS_DIAGNOSTICS_INFOD2Ev
libnml.so.0:_ZN20NML_DIAGNOSTICS_INFO5printEv
libnml.so.0:_ZN21CMS_SERVER_LOCAL_PORT13blocking_readEP19REMOTE_READ_REQUEST
libnml.so.0:_ZN21CMS_SERVER_LOCAL_PORT13get_diag_infoEP28REMOTE_GET_DIAG_INFO_REQUEST
libnml.so.0:_ZN21CMS_SERVER_LOCAL_PORT13get_msg_countEP28REMOTE_GET_DIAG_INFO_REQUEST
libnml.so.0:_ZN21CMS_SERVER_LOCAL_PORT13set_diag_infoEP28REMOTE_SET_DIAG_INFO_REQUEST
libnml.so.0:_ZN21CMS_SERVER_LOCAL_PORT15reset_diag_infoEv
libnml.so.0:_ZN21CMS_SERVER_LOCAL_PORT6readerEP19REMOTE_READ_REQUEST
libnml.so.0:_ZN21CMS_SERVER_LOCAL_PORT6writerEP20REMOTE_WRITE_REQUEST
libnml.so.0:_ZN21CMS_SERVER_LOCAL_PORTC1EP3CMS
libnml.so.0:_ZN21CMS_SERVER_LOCAL_PORTC2EP3CMS
libnml.so.0:_ZN21CMS_SERVER_LOCAL_PORTD0Ev
libnml.so.0:_ZN21CMS_SERVER_LOCAL_PORTD1Ev
libnml.so.0:_ZN21CMS_SERVER_LOCAL_PORTD2Ev
libnml.so.0:_ZN21NML_SERVER_LOCAL_PORT13blocking_readEP19REMOTE_READ_REQUEST
libnml.so.0:_ZN21NML_SERVER_LOCAL_PORT13get_diag_infoEP28REMOTE_GET_DIAG_INFO_REQUEST
libnml.so.0:_ZN21NML_SERVER_LOCAL_PORT13get_msg_countEP28REMOTE_GET_DIAG_INFO_REQUEST
libnml.so.0:_ZN21NML_SERVER_LOCAL_PORT13set_diag_infoEP28REMOTE_SET_DIAG_INFO_REQUEST
libnml.so.0:_ZN21NML_SERVER_LOCAL_PORT15reset_diag_infoEv
libnml.so.0:_ZN21NML_SERVER_LOCAL_PORT6readerEP19REMOTE_READ_REQUEST
libnml.so.0:_ZN21NML_SERVER_LOCAL_PORT6writerEP20REMOTE_WRITE_REQUEST
libnml.so.0:_ZN21NML_SERVER_LOCAL_PORTC1EP3NML
libnml.so.0:_ZN21NML_SERVER_LOCAL_PORTC2EP3NML
libnml.so.0:_ZN21NML_SERVER_LOCAL_PORTD0Ev
libnml.so.0:_ZN21NML_SERVER_LOCAL_PORTD1Ev
libnml.so.0:_ZN21NML_SERVER_LOCAL_PORTD2Ev
libnml.so.0:_ZN22CMS_SERVER_REMOTE_PORT11find_serverEll
libnml.so.0:_ZN22CMS_SERVER_REMOTE_PORT13print_serversEv
libnml.so.0:_ZN22CMS_SERVER_REMOTE_PORT13register_portEv
libnml.so.0:_ZN22CMS_SERVER_REMOTE_PORT15unregister_portEv
libnml.so.0:_ZN22CMS_SERVER_REMOTE_PORT18add_connected_userEi
libnml.so.0:_ZN22CMS_SERVER_REMOTE_PORT18get_connected_userEi
libnml.so.0:_ZN22CMS_SERVER_REMOTE_PORT21accept_local_port_cmsEP3CMS
libnml.so.0:_ZN22CMS_SERVER_REMOTE_PORTC1EP10CMS_SERVER
libnml.so.0:_ZN22CMS_SERVER_REMOTE_PORTC2EP10CMS_SERVER
libnml.so.0:_ZN22CMS_SERVER_REMOTE_PORTD0Ev
libnml.so.0:_ZN22CMS_SERVER_REMOTE_PORTD1Ev
libnml.so.0:_ZN22CMS_SERVER_REMOTE_PORTD2Ev
libnml.so.0:_ZN23CMS_USER_CONNECT_STRUCTC1Ev
libnml.so.0:_ZN23CMS_USER_CONNECT_STRUCTC2Ev
libnml.so.0:_ZN25CMS_DISPLAY_ASCII_UPDATER11update_charERc
libnml.so.0:_ZN25CMS_DISPLAY_ASCII_UPDATER13check_pointerEPcl
libnml.so.0:_ZN25CMS_DISPLAY_ASCII_UPDATER15find_next_commaEv
libnml.so.0:_ZN25CMS_DISPLAY_ASCII_UPDATER20get_encoded_msg_sizeEv
libnml.so.0:_ZN25CMS_DISPLAY_ASCII_UPDATER6rewindEv
libnml.so.0:_ZN25CMS_DISPLAY_ASCII_UPDATER6updateEPcj
libnml.so.0:_ZN25CMS_DISPLAY_ASCII_UPDATER6updateEPdj
libnml.so.0:_ZN25CMS_DISPLAY_ASCII_UPDATER6updateEPej
libnml.so.0:_ZN25CMS_DISPLAY_ASCII_UPDATER6updateEPfj
libnml.so.0:_ZN25CMS_DISPLAY_ASCII_UPDATER6updateEPhj
libnml.so.0:_ZN25CMS_DISPLAY_ASCII_UPDATER6updateEPij
libnml.so.0:_ZN25CMS_DISPLAY_ASCII_UPDATER6updateEPjj
libnml.so.0:_ZN25CMS_DISPLAY_ASCII_UPDATER6updateEPlj
libnml.so.0:_ZN25CMS_DISPLAY_ASCII_UPDATER6updateEPmj
libnml.so.0:_ZN25CMS_DISPLAY_ASCII_UPDATER6updateEPsj
libnml.so.0:_ZN25CMS_DISPLAY_ASCII_UPDATER6updateEPtj
libnml.so.0:_ZN25CMS_DISPLAY_ASCII_UPDATER6updateERb
libnml.so.0:_ZN25CMS_DISPLAY_ASCII_UPDATER6updateERc
libnml.so.0:_ZN25CMS_DISPLAY_ASCII_UPDATER6updateERd
libnml.so.0:_ZN25CMS_DISPLAY_ASCII_UPDATER6updateERe
libnml.so.0:_ZN25CMS_DISPLAY_ASCII_UPDATER6updateERf
libnml.so.0:_ZN25CMS_DISPLAY_ASCII_UPDATER6updateERh
libnml.so.0:_ZN25CMS_DISPLAY_ASCII_UPDATER6updateERi
libnml.so.0:_ZN25CMS_DISPLAY_ASCII_UPDATER6updateERj
libnml.so.0:_ZN25CMS_DISPLAY_ASCII_UPDATER6updateERl
libnml.so.0:_ZN25CMS_DISPLAY_ASCII_UPDATER6updateERm
libnml.so.0:_ZN25CMS_DISPLAY_ASCII_UPDATER6updateERs
libnml.so.0:_ZN25CMS_DISPLAY_ASCII_UPDATER6updateERt
libnml.so.0:_ZN25CMS_DISPLAY_ASCII_UPDATER8set_modeE16CMS_UPDATER_MODE
libnml.so.0:_ZN25CMS_DISPLAY_ASCII_UPDATERC1EP3CMS
libnml.so.0:_ZN25CMS_DISPLAY_ASCII_UPDATERC2EP3CMS
libnml.so.0:_ZN25CMS_DISPLAY_ASCII_UPDATERD0Ev
libnml.so.0:_ZN25CMS_DISPLAY_ASCII_UPDATERD1Ev
libnml.so.0:_ZN25CMS_DISPLAY_ASCII_UPDATERD2Ev
libnml.so.0:_ZN26CMS_SERVER_REMOTE_TCP_PORT13register_portEv
libnml.so.0:_ZN26CMS_SERVER_REMOTE_TCP_PORT14handle_requestEP15CLIENT_TCP_PORT
libnml.so.0:_ZN26CMS_SERVER_REMOTE_TCP_PORT15switch_functionEP15CLIENT_TCP_PORTP10CMS_SERVERlll
libnml.so.0:_ZN26CMS_SERVER_REMOTE_TCP_PORT15unregister_portEv
libnml.so.0:_ZN26CMS_SERVER_REMOTE_TCP_PORT20update_subscriptionsEv
libnml.so.0:_ZN26CMS_SERVER_REMOTE_TCP_PORT21accept_local_port_cmsEP3CMS
libnml.so.0:_ZN26CMS_SERVER_REMOTE_TCP_PORT23add_subscription_clientEiiiP15CLIENT_TCP_PORT
libnml.so.0:_ZN26CMS_SERVER_REMOTE_TCP_PORT26remove_subscription_clientEP15CLIENT_TCP_PORTi
libnml.so.0:_ZN26CMS_SERVER_REMOTE_TCP_PORT28recalculate_polling_intervalEv
libnml.so.0:_ZN26CMS_SERVER_REMOTE_TCP_PORT3runEv
libnml.so.0:_ZN26CMS_SERVER_REMOTE_TCP_PORTC1EP10CMS_SERVER
libnml.so.0:_ZN26CMS_SERVER_REMOTE_TCP_PORTC2EP10CMS_SERVER
libnml.so.0:_ZN26CMS_SERVER_REMOTE_TCP_PORTD0Ev
libnml.so.0:_ZN26CMS_SERVER_REMOTE_TCP_PORTD1Ev
libnml.so.0:_ZN26CMS_SERVER_REMOTE_TCP_PORTD2Ev
libnml.so.0:_ZN28TCPSVR_BLOCKING_READ_REQUESTC1Ev
libnml.so.0:_ZN28TCPSVR_BLOCKING_READ_REQUESTC2Ev
libnml.so.0:_ZN28TCPSVR_BLOCKING_READ_REQUESTD1Ev
libnml.so.0:_ZN28TCPSVR_BLOCKING_READ_REQUESTD2Ev
libnml.so.0:_ZN28TCP_BUFFER_SUBSCRIPTION_INFOC1Ev
libnml.so.0:_ZN28TCP_BUFFER_SUBSCRIPTION_INFOC2Ev
libnml.so.0:_ZN28TCP_BUFFER_SUBSCRIPTION_INFOD1Ev
libnml.so.0:_ZN28TCP_BUFFER_SUBSCRIPTION_INFOD2Ev
libnml.so.0:_ZN28TCP_CLIENT_SUBSCRIPTION_INFOC1Ev
libnml.so.0:_ZN28TCP_CLIENT_SUBSCRIPTION_INFOC2Ev
libnml.so.0:_ZN28TCP_CLIENT_SUBSCRIPTION_INFOD1Ev
libnml.so.0:_ZN28TCP_CLIENT_SUBSCRIPTION_INFOD2Ev
libnml.so.0:_ZN3CMS10disconnectEv
libnml.so.0:_ZN3CMS11main_accessEPvPi
libnml.so.0:_ZN3CMS12peek_encodedEv
libnml.so.0:_ZN3CMS12read_encodedEv
libnml.so.0:_ZN3CMS13blocking_readEd
libnml.so.0:_ZN3CMS13check_if_readEv
libnml.so.0:_ZN3CMS13check_pointerEPcl
libnml.so.0:_ZN3CMS13clean_buffersEv
libnml.so.0:_ZN3CMS13decode_headerEv
libnml.so.0:_ZN3CMS13encode_headerEv
libnml.so.0:_ZN3CMS13get_msg_countEv
libnml.so.0:_ZN3CMS13status_stringEi
libnml.so.0:_ZN3CMS13write_encodedEv
libnml.so.0:_ZN3CMS13write_if_readEPvPi
libnml.so.0:_ZN3CMS14internal_clearEv
libnml.so.0:_ZN3CMS14queue_peek_rawEv
libnml.so.0:_ZN3CMS14queue_read_rawEv
libnml.so.0:_ZN3CMS14set_cms_statusE10CMS_STATUS
libnml.so.0:_ZN3CMS15internal_accessEP14PHYSMEM_HANDLEPvPi
libnml.so.0:_ZN3CMS15internal_accessEPvlS0_Pi
libnml.so.0:_ZN3CMS15queue_write_rawEPvPi
libnml.so.0:_ZN3CMS15set_subdivisionEi
libnml.so.0:_ZN3CMS16get_queue_lengthEv
libnml.so.0:_ZN3CMS16set_encoded_dataEPvl
libnml.so.0:_ZN3CMS16set_temp_updaterE27CMS_NEUTRAL_ENCODING_METHOD
libnml.so.0:_ZN3CMS17check_if_read_rawEv
libnml.so.0:_ZN3CMS17get_msg_count_rawEv
libnml.so.0:_ZN3CMS17write_if_read_rawEPvPi
libnml.so.0:_ZN3CMS18get_diag_proc_infoEv
libnml.so.0:_ZN3CMS18queue_peek_encodedEv
libnml.so.0:_ZN3CMS18queue_read_encodedEv
libnml.so.0:_ZN3CMS18set_diag_proc_infoEP18CMS_DIAG_PROC_INFO
libnml.so.0:_ZN3CMS19get_space_availableEv
libnml.so.0:_ZN3CMS19queue_write_encodedEv
libnml.so.0:_ZN3CMS20get_diagnostics_infoEv
libnml.so.0:_ZN3CMS20get_encoded_msg_sizeEv
libnml.so.0:_ZN3CMS20setup_diag_proc_infoEv
libnml.so.0:_ZN3CMS21check_if_read_encodedEv
libnml.so.0:_ZN3CMS21decode_queuing_headerEv
libnml.so.0:_ZN3CMS21encode_queuing_headerEv
libnml.so.0:_ZN3CMS21get_msg_count_encodedEv
libnml.so.0:_ZN3CMS21write_if_read_encodedEv
libnml.so.0:_ZN3CMS22restore_normal_updaterEv
libnml.so.0:_ZN3CMS23queue_check_if_read_rawEv
libnml.so.0:_ZN3CMS23queue_get_msg_count_rawEv
libnml.so.0:_ZN3CMS23queue_write_if_read_rawEPvPi
libnml.so.0:_ZN3CMS26queue_get_queue_length_rawEv
libnml.so.0:_ZN3CMS27internal_retrieve_diag_infoEP14PHYSMEM_HANDLEPv
libnml.so.0:_ZN3CMS27queue_check_if_read_encodedEv
libnml.so.0:_ZN3CMS27queue_get_msg_count_encodedEv
libnml.so.0:_ZN3CMS27queue_write_if_read_encodedEv
libnml.so.0:_ZN3CMS29calculate_and_store_diag_infoEP14PHYSMEM_HANDLEPv
libnml.so.0:_ZN3CMS29queue_get_space_available_rawEv
libnml.so.0:_ZN3CMS30queue_get_queue_length_encodedEv
libnml.so.0:_ZN3CMS33queue_get_space_available_encodedEv
libnml.so.0:_ZN3CMS4openEv
libnml.so.0:_ZN3CMS4peekEv
libnml.so.0:_ZN3CMS4readEv
libnml.so.0:_ZN3CMS5clearEv
libnml.so.0:_ZN3CMS5loginEPKcS1_
libnml.so.0:_ZN3CMS5writeEPvPi
libnml.so.0:_ZN3CMS6rewindEv
libnml.so.0:_ZN3CMS6updateEP12PM_CARTESIANi
libnml.so.0:_ZN3CMS6updateEP12PM_EULER_ZYXi
libnml.so.0:_ZN3CMS6updateEP12PM_EULER_ZYZi
libnml.so.0:_ZN3CMS6updateEP12PM_SPHERICALi
libnml.so.0:_ZN3CMS6updateEP13PM_QUATERNIONi
libnml.so.0:_ZN3CMS6updateEP14PM_CYLINDRICALi
libnml.so.0:_ZN3CMS6updateEP14PM_HOMOGENEOUSi
libnml.so.0:_ZN3CMS6updateEP18PM_ROTATION_MATRIXi
libnml.so.0:_ZN3CMS6updateEP18PM_ROTATION_VECTORi
libnml.so.0:_ZN3CMS6updateEP6PM_RPYi
libnml.so.0:_ZN3CMS6updateEP7PM_POSEi
libnml.so.0:_ZN3CMS6updateEPcj
libnml.so.0:_ZN3CMS6updateEPdj
libnml.so.0:_ZN3CMS6updateEPej
libnml.so.0:_ZN3CMS6updateEPfj
libnml.so.0:_ZN3CMS6updateEPhj
libnml.so.0:_ZN3CMS6updateEPij
libnml.so.0:_ZN3CMS6updateEPjj
libnml.so.0:_ZN3CMS6updateEPlj
libnml.so.0:_ZN3CMS6updateEPmj
libnml.so.0:_ZN3CMS6updateEPsj
libnml.so.0:_ZN3CMS6updateEPtj
libnml.so.0:_ZN3CMS6updateER12PM_CARTESIAN
libnml.so.0:_ZN3CMS6updateER12PM_EULER_ZYX
libnml.so.0:_ZN3CMS6updateER12PM_EULER_ZYZ
libnml.so.0:_ZN3CMS6updateER12PM_SPHERICAL
libnml.so.0:_ZN3CMS6updateER13PM_QUATERNION
libnml.so.0:_ZN3CMS6updateER14PM_CYLINDRICAL
libnml.so.0:_ZN3CMS6updateER14PM_HOMOGENEOUS
libnml.so.0:_ZN3CMS6updateER18PM_ROTATION_MATRIX
libnml.so.0:_ZN3CMS6updateER18PM_ROTATION_VECTOR
libnml.so.0:_ZN3CMS6updateER6PM_RPY
libnml.so.0:_ZN3CMS6updateER7PM_POSE
libnml.so.0:_ZN3CMS6updateERb
libnml.so.0:_ZN3CMS6updateERc
libnml.so.0:_ZN3CMS6updateERd
libnml.so.0:_ZN3CMS6updateERe
libnml.so.0:_ZN3CMS6updateERf
libnml.so.0:_ZN3CMS6updateERh
libnml.so.0:_ZN3CMS6updateERi
libnml.so.0:_ZN3CMS6updateERj
libnml.so.0:_ZN3CMS6updateERl
libnml.so.0:_ZN3CMS6updateERm
libnml.so.0:_ZN3CMS6updateERs
libnml.so.0:_ZN3CMS6updateERt
libnml.so.0:_ZN3CMS8check_idEl
libnml.so.0:_ZN3CMS8peek_rawEv
libnml.so.0:_ZN3CMS8read_rawEv
libnml.so.0:_ZN3CMS8set_modeE7CMSMODE
libnml.so.0:_ZN3CMS9reconnectEv
libnml.so.0:_ZN3CMS9write_rawEPvPi
libnml.so.0:_ZN3CMSC1EPKcS1_i
libnml.so.0:_ZN3CMSC1ERS_
libnml.so.0:_ZN3CMSC1El
libnml.so.0:_ZN3CMSC2EPKcS1_i
libnml.so.0:_ZN3CMSC2ERS_
libnml.so.0:_ZN3CMSC2El
libnml.so.0:_ZN3CMSD0Ev
libnml.so.0:_ZN3CMSD1Ev
libnml.so.0:_ZN3CMSD2Ev
libnml.so.0:_ZN3CMSdlEPv
libnml.so.0:_ZN3CMSnwEm
libnml.so.0:_ZN3NML10disconnectEv
libnml.so.0:_ZN3NML10print_infoEPKcS1_S1_
libnml.so.0:_ZN3NML11get_addressEv
libnml.so.0:_ZN3NML11reconstructEPFiiPvP3CMSEPKcS6_S6_ii
libnml.so.0:_ZN3NML12format_inputEP6NMLmsg
libnml.so.0:_ZN3NML13blocking_readEd
libnml.so.0:_ZN3NML13check_if_readEv
libnml.so.0:_ZN3NML13clean_buffersEv
libnml.so.0:_ZN3NML13format_outputEv
libnml.so.0:_ZN3NML13get_msg_countEv
libnml.so.0:_ZN3NML13write_if_readEP6NMLmsgPi
libnml.so.0:_ZN3NML13write_if_readER6NMLmsgPi
libnml.so.0:_ZN3NML14delete_channelEv
libnml.so.0:_ZN3NML16get_queue_lengthEv
libnml.so.0:_ZN3NML16peek_subdivisionEi
libnml.so.0:_ZN3NML16print_queue_infoEv
libnml.so.0:_ZN3NML16read_subdivisionEi
libnml.so.0:_ZN3NML16run_format_chainEiPv
libnml.so.0:_ZN3NML17write_subdivisionEiP6NMLmsg
libnml.so.0:_ZN3NML17write_subdivisionEiR6NMLmsg
libnml.so.0:_ZN3NML19add_to_channel_listEv
libnml.so.0:_ZN3NML19get_space_availableEv
libnml.so.0:_ZN3NML19prefix_format_chainEPFiiPvP3CMSE
libnml.so.0:_ZN3NML20get_diagnostics_infoEv
libnml.so.0:_ZN3NML20register_with_serverEv
libnml.so.0:_ZN3NML22blocking_read_extendedEdd
libnml.so.0:_ZN3NML22get_total_subdivisionsEv
libnml.so.0:_ZN3NML23get_address_subdivisionEi
libnml.so.0:_ZN3NML25blocking_read_subdivisionEid
libnml.so.0:_ZN3NML25write_if_read_subdivisionEiP6NMLmsg
libnml.so.0:_ZN3NML25write_if_read_subdivisionEiR6NMLmsg
libnml.so.0:_ZN3NML4peekEPvl
libnml.so.0:_ZN3NML4peekEv
libnml.so.0:_ZN3NML4readEPvl
libnml.so.0:_ZN3NML4readEv
libnml.so.0:_ZN3NML5clearEv
libnml.so.0:_ZN3NML5loginEPKcS1_
libnml.so.0:_ZN3NML5resetEv
libnml.so.0:_ZN3NML5validEv
libnml.so.0:_ZN3NML5writeEP6NMLmsgPi
libnml.so.0:_ZN3NML5writeER6NMLmsgPi
libnml.so.0:_ZN3NML7msg2strEP6NMLmsg
libnml.so.0:_ZN3NML7msg2strER6NMLmsg
libnml.so.0:_ZN3NML7str2msgEPKc
libnml.so.0:_ZN3NML9reconnectEv
libnml.so.0:_ZN3NML9set_errorEv
libnml.so.0:_ZN3NMLC1EPFiiPvP3CMSEPKcS6_S6_ii
libnml.so.0:_ZN3NMLC1EPKcS1_
libnml.so.0:_ZN3NMLC1EPKcS1_S1_ii
libnml.so.0:_ZN3NMLC1EPS_ii
libnml.so.0:_ZN3NMLC1ERS_
libnml.so.0:_ZN3NMLC2EPFiiPvP3CMSEPKcS6_S6_ii
libnml.so.0:_ZN3NMLC2EPKcS1_
libnml.so.0:_ZN3NMLC2EPKcS1_S1_ii
libnml.so.0:_ZN3NMLC2EPS_ii
libnml.so.0:_ZN3NMLC2ERS_
libnml.so.0:_ZN3NMLD0Ev
libnml.so.0:_ZN3NMLD1Ev
libnml.so.0:_ZN3NMLD2Ev
libnml.so.0:_ZN3NMLdlEPv
libnml.so.0:_ZN3NMLnwEm
libnml.so.0:_ZN5SHMEM11main_accessEPvPi
libnml.so.0:_ZN5SHMEM4openEv
libnml.so.0:_ZN5SHMEM5closeEv
libnml.so.0:_ZN5SHMEMC1EPKcS1_ii
libnml.so.0:_ZN5SHMEMC1EPKcliii
libnml.so.0:_ZN5SHMEMC2EPKcS1_ii
libnml.so.0:_ZN5SHMEMC2EPKcliii
libnml.so.0:_ZN5SHMEMD0Ev
libnml.so.0:_ZN5SHMEMD1Ev
libnml.so.0:_ZN5SHMEMD2Ev
libnml.so.0:_ZN6LOCMEM11main_accessEPvPi
libnml.so.0:_ZN6LOCMEMC1EPKcS1_ii
libnml.so.0:_ZN6LOCMEMC2EPKcS1_ii
libnml.so.0:_ZN6LOCMEMD0Ev
libnml.so.0:_ZN6LOCMEMD1Ev
libnml.so.0:_ZN6LOCMEMD2Ev
libnml.so.0:_ZN6NMLmsg5clearEv
libnml.so.0:_ZN6NMLmsg6updateEP3CMS
libnml.so.0:_ZN6NMLmsgC1Eil
libnml.so.0:_ZN6NMLmsgC1Eili
libnml.so.0:_ZN6NMLmsgC1Eim
libnml.so.0:_ZN6NMLmsgC2Eil
libnml.so.0:_ZN6NMLmsgC2Eili
libnml.so.0:_ZN6NMLmsgC2Eim
libnml.so.0:_ZN6TCPMEM10disconnectEv
libnml.so.0:_ZN6TCPMEM13blocking_readEd
libnml.so.0:_ZN6TCPMEM13check_if_readEv
libnml.so.0:_ZN6TCPMEM13get_msg_countEv
libnml.so.0:_ZN6TCPMEM13write_if_readEPvPi
libnml.so.0:_ZN6TCPMEM14send_diag_infoEv
libnml.so.0:_ZN6TCPMEM14set_socket_fdsEi
libnml.so.0:_ZN6TCPMEM14verify_bufnameEv
libnml.so.0:_ZN6TCPMEM15disable_sigpipeEv
libnml.so.0:_ZN6TCPMEM16get_queue_lengthEv
libnml.so.0:_ZN6TCPMEM16reenable_sigpipeEv
libnml.so.0:_ZN6TCPMEM18handle_old_repliesEv
libnml.so.0:_ZN6TCPMEM19get_space_availableEv
libnml.so.0:_ZN6TCPMEM20get_diagnostics_infoEv
libnml.so.0:_ZN6TCPMEM4peekEv
libnml.so.0:_ZN6TCPMEM4readEv
libnml.so.0:_ZN6TCPMEM5clearEv
libnml.so.0:_ZN6TCPMEM5writeEPvPi
libnml.so.0:_ZN6TCPMEM9reconnectEv
libnml.so.0:_ZN6TCPMEMC1EPKcS1_
libnml.so.0:_ZN6TCPMEMC2EPKcS1_
libnml.so.0:_ZN6TCPMEMD0Ev
libnml.so.0:_ZN6TCPMEMD1Ev
libnml.so.0:_ZN6TCPMEMD2Ev
libnml.so.0:_ZN8NML_TEXT6updateEP3CMS
libnml.so.0:_ZN9NML_ERROR6updateEP3CMS
libnml.so.0:_ZN9RCS_TIMER10zero_timerEv
libnml.so.0:_ZN9RCS_TIMER11set_timeoutEd
libnml.so.0:_ZN9RCS_TIMER4initEdi
libnml.so.0:_ZN9RCS_TIMER4loadEv
libnml.so.0:_ZN9RCS_TIMER4syncEv
libnml.so.0:_ZN9RCS_TIMER4waitEv
libnml.so.0:_ZN9RCS_TIMERC1EPKcS1_
libnml.so.0:_ZN9RCS_TIMERC1EdPFiPvES0_
libnml.so.0:_ZN9RCS_TIMERC1EdPKcS1_
libnml.so.0:_ZN9RCS_TIMERC2EPKcS1_
libnml.so.0:_ZN9RCS_TIMERC2EdPFiPvES0_
libnml.so.0:_ZN9RCS_TIMERC2EdPKcS1_
libnml.so.0:_ZN9RCS_TIMERD1Ev
libnml.so.0:_ZN9RCS_TIMERD2Ev
libnml.so.0:attach_rcs_exit_list
libnml.so.0:clean_print_list
libnml.so.0:clear_rcs_print_flag
libnml.so.0:clk_tck
libnml.so.0:close_rcs_printing
libnml.so.0:cms_config
libnml.so.0:cms_copy
libnml.so.0:cms_create
libnml.so.0:cms_create_from_lines
libnml.so.0:convert_print_list_to_lines
libnml.so.0:count_characters_in_print_list
libnml.so.0:count_lines_in_print_list
libnml.so.0:esleep
libnml.so.0:etime
libnml.so.0:get_default_nml_config_file
libnml.so.0:get_rcs_lines_table
libnml.so.0:get_rcs_print_destination
libnml.so.0:get_rcs_print_list_size
libnml.so.0:hostname_matches_bufferline
libnml.so.0:load_nml_config_file
libnml.so.0:nmlAllowNormalConnection
libnml.so.0:nmlClearHostAliases
libnml.so.0:nmlForceLocalConnection
libnml.so.0:nmlForceRemoteConnection
libnml.so.0:nmlSetHostAlias
libnml.so.0:nmlWaitOpen
libnml.so.0:nml_cleanup
libnml.so.0:nml_print_diag_list
libnml.so.0:nml_server_cleanup
libnml.so.0:nml_start
libnml.so.0:print_etime
libnml.so.0:print_rcs_error_new
libnml.so.0:rcs_cleanup
libnml.so.0:rcs_exit
libnml.so.0:rcs_fputs
libnml.so.0:rcs_print
libnml.so.0:rcs_print_debug
libnml.so.0:rcs_print_error
libnml.so.0:rcs_print_sys_error
libnml.so.0:rcs_puts
libnml.so.0:rcs_sem_clear
libnml.so.0:rcs_sem_close
libnml.so.0:rcs_sem_create
libnml.so.0:rcs_sem_destroy
libnml.so.0:rcs_sem_flush
libnml.so.0:rcs_sem_open
libnml.so.0:rcs_sem_post
libnml.so.0:rcs_sem_trywait
libnml.so.0:rcs_sem_wait
libnml.so.0:rcs_sem_wait_notimeout
libnml.so.0:rcs_shm_close
libnml.so.0:rcs_shm_delete
libnml.so.0:rcs_shm_nattch
libnml.so.0:rcs_shm_open
libnml.so.0:rcs_vprint
libnml.so.0:recvn
libnml.so.0:sem_clear_bus_error_handler
libnml.so.0:sendn
libnml.so.0:separate_words
libnml.so.0:set_default_nml_config_file
libnml.so.0:set_print_rcs_error_info
libnml.so.0:set_rcs_print_destination
libnml.so.0:set_rcs_print_flag
libnml.so.0:set_rcs_print_notify
libnml.so.0:strip_control_characters
libnml.so.0:unload_nml_config_file
libnml.so.0:update_lines_table
libposemath.so.0:_Z3dotRK12PM_CARTESIANS1_
libposemath.so.0:_Z3invRK12PM_CARTESIAN
libposemath.so.0:_Z3invRK13PM_QUATERNION
libposemath.so.0:_Z3invRK14PM_HOMOGENEOUS
libposemath.so.0:_Z3invRK18PM_ROTATION_MATRIX
libposemath.so.0:_Z3invRK7PM_POSE
libposemath.so.0:_Z3magRK12PM_CARTESIAN
libposemath.so.0:_Z4dispRK12PM_CARTESIANS1_
libposemath.so.0:_Z4projRK12PM_CARTESIANRS_
libposemath.so.0:_Z4unitRK12PM_CARTESIAN
libposemath.so.0:_Z5crossRK12PM_CARTESIANS1_
libposemath.so.0:_Z6isNorm12PM_CARTESIAN
libposemath.so.0:_Z6isNorm13PM_QUATERNION
libposemath.so.0:_Z6isNorm18PM_ROTATION_MATRIX
libposemath.so.0:_Z6isNorm18PM_ROTATION_VECTOR
libposemath.so.0:_ZN12PM_CARTESIANC1ERK12PM_SPHERICAL
libposemath.so.0:_ZN12PM_CARTESIANC1ERK14PM_CYLINDRICAL
libposemath.so.0:_ZN12PM_CARTESIANC1ERKS_
libposemath.so.0:_ZN12PM_CARTESIANC1Eddd
libposemath.so.0:_ZN12PM_CARTESIANC2ERK12PM_SPHERICAL
libposemath.so.0:_ZN12PM_CARTESIANC2ERK14PM_CYLINDRICAL
libposemath.so.0:_ZN12PM_CARTESIANC2ERKS_
libposemath.so.0:_ZN12PM_CARTESIANC2Eddd
libposemath.so.0:_ZN12PM_CARTESIANdVEd
libposemath.so.0:_ZN12PM_CARTESIANixEi
libposemath.so.0:_ZN12PM_CARTESIANmIERKS_
libposemath.so.0:_ZN12PM_CARTESIANmLEd
libposemath.so.0:_ZN12PM_CARTESIANpLERKS_
libposemath.so.0:_ZN12PM_EULER_ZYXC1ERK13PM_QUATERNION
libposemath.so.0:_ZN12PM_EULER_ZYXC1ERK18PM_ROTATION_MATRIX
libposemath.so.0:_ZN12PM_EULER_ZYXC1ERKS_
libposemath.so.0:_ZN12PM_EULER_ZYXC1Eddd
libposemath.so.0:_ZN12PM_EULER_ZYXC2ERK13PM_QUATERNION
libposemath.so.0:_ZN12PM_EULER_ZYXC2ERK18PM_ROTATION_MATRIX
libposemath.so.0:_ZN12PM_EULER_ZYXC2ERKS_
libposemath.so.0:_ZN12PM_EULER_ZYXC2Eddd
libposemath.so.0:_ZN12PM_EULER_ZYXixEi
libposemath.so.0:_ZN12PM_EULER_ZYZC1ERK13PM_QUATERNION
libposemath.so.0:_ZN12PM_EULER_ZYZC1ERK18PM_ROTATION_MATRIX
libposemath.so.0:_ZN12PM_EULER_ZYZC1ERKS_
libposemath.so.0:_ZN12PM_EULER_ZYZC1Eddd
libposemath.so.0:_ZN12PM_EULER_ZYZC2ERK13PM_QUATERNION
libposemath.so.0:_ZN12PM_EULER_ZYZC2ERK18PM_ROTATION_MATRIX
libposemath.so.0:_ZN12PM_EULER_ZYZC2ERKS_
libposemath.so.0:_ZN12PM_EULER_ZYZC2Eddd
libposemath.so.0:_ZN12PM_EULER_ZYZixEi
libposemath.so.0:_ZN12PM_SPHERICALC1ERK12PM_CARTESIAN
libposemath.so.0:_ZN12PM_SPHERICALC1ERK14PM_CYLINDRICAL
libposemath.so.0:_ZN12PM_SPHERICALC1ERKS_
libposemath.so.0:_ZN12PM_SPHERICALC1Eddd
libposemath.so.0:_ZN12PM_SPHERICALC2ERK12PM_CARTESIAN
libposemath.so.0:_ZN12PM_SPHERICALC2ERK14PM_CYLINDRICAL
libposemath.so.0:_ZN12PM_SPHERICALC2ERKS_
libposemath.so.0:_ZN12PM_SPHERICALC2Eddd
libposemath.so.0:_ZN12PM_SPHERICALixEi
libposemath.so.0:_ZN13PM_QUATERNION13axisAngleMultE7PM_AXISd
libposemath.so.0:_ZN13PM_QUATERNIONC1E7PM_AXISd
libposemath.so.0:_ZN13PM_QUATERNIONC1ERK12PM_EULER_ZYX
libposemath.so.0:_ZN13PM_QUATERNIONC1ERK12PM_EULER_ZYZ
libposemath.so.0:_ZN13PM_QUATERNIONC1ERK18PM_ROTATION_MATRIX
libposemath.so.0:_ZN13PM_QUATERNIONC1ERK18PM_ROTATION_VECTOR
libposemath.so.0:_ZN13PM_QUATERNIONC1ERK6PM_RPY
libposemath.so.0:_ZN13PM_QUATERNIONC1ERKS_
libposemath.so.0:_ZN13PM_QUATERNIONC1Edddd
libposemath.so.0:_ZN13PM_QUATERNIONC2E7PM_AXISd
libposemath.so.0:_ZN13PM_QUATERNIONC2ERK12PM_EULER_ZYX
libposemath.so.0:_ZN13PM_QUATERNIONC2ERK12PM_EULER_ZYZ
libposemath.so.0:_ZN13PM_QUATERNIONC2ERK18PM_ROTATION_MATRIX
libposemath.so.0:_ZN13PM_QUATERNIONC2ERK18PM_ROTATION_VECTOR
libposemath.so.0:_ZN13PM_QUATERNIONC2ERK6PM_RPY
libposemath.so.0:_ZN13PM_QUATERNIONC2ERKS_
libposemath.so.0:_ZN13PM_QUATERNIONC2Edddd
libposemath.so.0:_ZN13PM_QUATERNIONixEi
libposemath.so.0:_ZN14PM_CYLINDRICALC1ERK12PM_CARTESIAN
libposemath.so.0:_ZN14PM_CYLINDRICALC1ERK12PM_SPHERICAL
libposemath.so.0:_ZN14PM_CYLINDRICALC1ERKS_
libposemath.so.0:_ZN14PM_CYLINDRICALC1Eddd
libposemath.so.0:_ZN14PM_CYLINDRICALC2ERK12PM_CARTESIAN
libposemath.so.0:_ZN14PM_CYLINDRICALC2ERK12PM_SPHERICAL
libposemath.so.0:_ZN14PM_CYLINDRICALC2ERKS_
libposemath.so.0:_ZN14PM_CYLINDRICALC2Eddd
libposemath.so.0:_ZN14PM_CYLINDRICALixEi
libposemath.so.0:_ZN14PM_HOMOGENEOUSC1E12PM_CARTESIAN18PM_ROTATION_MATRIX
libposemath.so.0:_ZN14PM_HOMOGENEOUSC1ERK7PM_POSE
libposemath.so.0:_ZN14PM_HOMOGENEOUSC1ERKS_
libposemath.so.0:_ZN14PM_HOMOGENEOUSC2E12PM_CARTESIAN18PM_ROTATION_MATRIX
libposemath.so.0:_ZN14PM_HOMOGENEOUSC2ERK7PM_POSE
libposemath.so.0:_ZN14PM_HOMOGENEOUSC2ERKS_
libposemath.so.0:_ZN14PM_HOMOGENEOUSixEi
libposemath.so.0:_ZN18PM_ROTATION_MATRIXC1E12PM_CARTESIANS0_S0_
libposemath.so.0:_ZN18PM_ROTATION_MATRIXC1ERK12PM_EULER_ZYX
libposemath.so.0:_ZN18PM_ROTATION_MATRIXC1ERK12PM_EULER_ZYZ
libposemath.so.0:_ZN18PM_ROTATION_MATRIXC1ERK13PM_QUATERNION
libposemath.so.0:_ZN18PM_ROTATION_MATRIXC1ERK18PM_ROTATION_VECTOR
libposemath.so.0:_ZN18PM_ROTATION_MATRIXC1ERK6PM_RPY
libposemath.so.0:_ZN18PM_ROTATION_MATRIXC1ERKS_
libposemath.so.0:_ZN18PM_ROTATION_MATRIXC1Eddddddddd
libposemath.so.0:_ZN18PM_ROTATION_MATRIXC2E12PM_CARTESIANS0_S0_
libposemath.so.0:_ZN18PM_ROTATION_MATRIXC2ERK12PM_EULER_ZYX
libposemath.so.0:_ZN18PM_ROTATION_MATRIXC2ERK12PM_EULER_ZYZ
libposemath.so.0:_ZN18PM_ROTATION_MATRIXC2ERK13PM_QUATERNION
libposemath.so.0:_ZN18PM_ROTATION_MATRIXC2ERK18PM_ROTATION_VECTOR
libposemath.so.0:_ZN18PM_ROTATION_MATRIXC2ERK6PM_RPY
libposemath.so.0:_ZN18PM_ROTATION_MATRIXC2ERKS_
libposemath.so.0:_ZN18PM_ROTATION_MATRIXC2Eddddddddd
libposemath.so.0:_ZN18PM_ROTATION_MATRIXixEi
libposemath.so.0:_ZN18PM_ROTATION_VECTORC1ERK13PM_QUATERNION
libposemath.so.0:_ZN18PM_ROTATION_VECTORC1ERKS_
libposemath.so.0:_ZN18PM_ROTATION_VECTORC1Edddd
libposemath.so.0:_ZN18PM_ROTATION_VECTORC2ERK13PM_QUATERNION
libposemath.so.0:_ZN18PM_ROTATION_VECTORC2ERKS_
libposemath.so.0:_ZN18PM_ROTATION_VECTORC2Edddd
libposemath.so.0:_ZN18PM_ROTATION_VECTORixEi
libposemath.so.0:_ZN6PM_RPYC1ERK13PM_QUATERNION
libposemath.so.0:_ZN6PM_RPYC1ERK18PM_ROTATION_MATRIX
libposemath.so.0:_ZN6PM_RPYC1ERKS_
libposemath.so.0:_ZN6PM_RPYC1Eddd
libposemath.so.0:_ZN6PM_RPYC2ERK13PM_QUATERNION
libposemath.so.0:_ZN6PM_RPYC2ERK18PM_ROTATION_MATRIX
libposemath.so.0:_ZN6PM_RPYC2ERKS_
libposemath.so.0:_ZN6PM_RPYC2Eddd
libposemath.so.0:_ZN6PM_RPYixEi
libposemath.so.0:_ZN7PM_LINE4initE7PM_POSES0_
libposemath.so.0:_ZN7PM_LINE5pointEdP7PM_POSE
libposemath.so.0:_ZN7PM_LINEC1ERKS_
libposemath.so.0:_ZN7PM_LINEC2ERKS_
libposemath.so.0:_ZN7PM_POSEC1E12PM_CARTESIAN13PM_QUATERNION
libposemath.so.0:_ZN7PM_POSEC1ERK14PM_HOMOGENEOUS
libposemath.so.0:_ZN7PM_POSEC1ERKS_
libposemath.so.0:_ZN7PM_POSEC1Eddddddd
libposemath.so.0:_ZN7PM_POSEC2E12PM_CARTESIAN13PM_QUATERNION
libposemath.so.0:_ZN7PM_POSEC2ERK14PM_HOMOGENEOUS
libposemath.so.0:_ZN7PM_POSEC2ERKS_
libposemath.so.0:_ZN7PM_POSEC2Eddddddd
libposemath.so.0:_ZN7PM_POSEixEi
libposemath.so.0:_ZN9PM_CIRCLE4initE7PM_POSES0_12PM_CARTESIANS1_i
libposemath.so.0:_ZN9PM_CIRCLE5pointEdP7PM_POSE
libposemath.so.0:_ZN9PM_CIRCLEC1ERKS_
libposemath.so.0:_ZN9PM_CIRCLEC2ERKS_
libposemath.so.0:_ZdvRK12PM_CARTESIANd
libposemath.so.0:_ZdvRK13PM_QUATERNIONd
libposemath.so.0:_ZeqRK12PM_CARTESIANS1_
libposemath.so.0:_ZeqRK13PM_QUATERNIONRS_
libposemath.so.0:_ZeqRK7PM_POSES1_
libposemath.so.0:_Zmi12PM_CARTESIANRKS_
libposemath.so.0:_Zml12PM_CARTESIANd
libposemath.so.0:_ZmlRK13PM_QUATERNIONRK12PM_CARTESIAN
libposemath.so.0:_ZmlRK13PM_QUATERNIONS1_
libposemath.so.0:_ZmlRK13PM_QUATERNIONd
libposemath.so.0:_ZmlRK18PM_ROTATION_MATRIXS1_
libposemath.so.0:_ZmlRK7PM_POSERK12PM_CARTESIAN
libposemath.so.0:_ZmlRK7PM_POSES1_
libposemath.so.0:_Zmld12PM_CARTESIAN
libposemath.so.0:_ZmldRK13PM_QUATERNION
libposemath.so.0:_ZneRK12PM_CARTESIANS1_
libposemath.so.0:_ZneRK13PM_QUATERNIONS1_
libposemath.so.0:_ZneRK7PM_POSES1_
libposemath.so.0:_ZngRK12PM_CARTESIAN
libposemath.so.0:_ZngRK13PM_QUATERNION
libposemath.so.0:_ZngRK7PM_POSE
libposemath.so.0:_Zpl12PM_CARTESIANRKS_
libposemath.so.0:_ZpsRK12PM_CARTESIAN
libposemath.so.0:_ZpsRK13PM_QUATERNION
libposemath.so.0:_ZpsRK7PM_POSE
libposemath.so.0:go_cart_cart_add
libposemath.so.0:go_cart_cart_angle
libposemath.so.0:go_cart_cart_compare
libposemath.so.0:go_cart_cart_cross
libposemath.so.0:go_cart_cart_disp
libposemath.so.0:go_cart_cart_dot
libposemath.so.0:go_cart_cart_par
libposemath.so.0:go_cart_cart_perp
libposemath.so.0:go_cart_cart_pose
libposemath.so.0:go_cart_cart_proj
libposemath.so.0:go_cart_cart_rot
libposemath.so.0:go_cart_cart_sub
libposemath.so.0:go_cart_centroid
libposemath.so.0:go_cart_centroidize
libposemath.so.0:go_cart_cyl_convert
libposemath.so.0:go_cart_is_norm
libposemath.so.0:go_cart_mag
libposemath.so.0:go_cart_magsq
libposemath.so.0:go_cart_neg
libposemath.so.0:go_cart_normal
libposemath.so.0:go_cart_plane_proj
libposemath.so.0:go_cart_rvec_convert
libposemath.so.0:go_cart_scale_mult
libposemath.so.0:go_cart_sph_convert
libposemath.so.0:go_cart_trilaterate
libposemath.so.0:go_cart_unit
libposemath.so.0:go_cart_vector_convert
libposemath.so.0:go_cart_zero
libposemath.so.0:go_cbrt
libposemath.so.0:go_complex_add
libposemath.so.0:go_complex_arg
libposemath.so.0:go_complex_cbrt
libposemath.so.0:go_complex_div
libposemath.so.0:go_complex_mag
libposemath.so.0:go_complex_mult
libposemath.so.0:go_complex_scale
libposemath.so.0:go_complex_sqrt
libposemath.so.0:go_complex_sub
libposemath.so.0:go_cubic_solve
libposemath.so.0:go_cyl_cart_convert
libposemath.so.0:go_cyl_sph_convert
libposemath.so.0:go_dh_pose_convert
libposemath.so.0:go_get_singular_epsilon
libposemath.so.0:go_hom_inv
libposemath.so.0:go_hom_pose_convert
libposemath.so.0:go_line_evaluate
libposemath.so.0:go_line_from_planes
libposemath.so.0:go_line_from_poGO_RESULT_direction
libposemath.so.0:go_line_from_points
libposemath.so.0:go_line_line_compare
libposemath.so.0:go_line_plane_intersect
libposemath.so.0:go_line_plane_proj
libposemath.so.0:go_link_joint_set
libposemath.so.0:go_link_pose_build
libposemath.so.0:go_mat3_inv
libposemath.so.0:go_mat3_mat3_mult
libposemath.so.0:go_mat3_vec3_mult
libposemath.so.0:go_mat4_inv
libposemath.so.0:go_mat4_mat4_mult
libposemath.so.0:go_mat4_vec4_mult
libposemath.so.0:go_mat6_inv
libposemath.so.0:go_mat6_mat6_mult
libposemath.so.0:go_mat6_vec6_mult
libposemath.so.0:go_mat_cart_mult
libposemath.so.0:go_mat_inv
libposemath.so.0:go_mat_is_norm
libposemath.so.0:go_mat_mat_mult
libposemath.so.0:go_mat_matrix_convert
libposemath.so.0:go_mat_norm
libposemath.so.0:go_mat_quat_convert
libposemath.so.0:go_mat_rpy_convert
libposemath.so.0:go_mat_rvec_convert
libposemath.so.0:go_mat_zyx_convert
libposemath.so.0:go_mat_zyz_convert
libposemath.so.0:go_matrix_inv
libposemath.so.0:go_matrix_matrix_add
libposemath.so.0:go_matrix_matrix_copy
libposemath.so.0:go_matrix_matrix_mult
libposemath.so.0:go_matrix_transpose
libposemath.so.0:go_matrix_vector_cross
libposemath.so.0:go_matrix_vector_mult
libposemath.so.0:go_plane_evaluate
libposemath.so.0:go_plane_from_abcd
libposemath.so.0:go_plane_from_poGO_RESULT_line
libposemath.so.0:go_plane_from_poGO_RESULT_normal
libposemath.so.0:go_plane_from_points
libposemath.so.0:go_plane_plane_compare
libposemath.so.0:go_poGO_RESULT_line_distance
libposemath.so.0:go_poGO_RESULT_line_proj
libposemath.so.0:go_poGO_RESULT_plane_distance
libposemath.so.0:go_poGO_RESULT_plane_proj
libposemath.so.0:go_pose_cart_mult
libposemath.so.0:go_pose_dh_convert
libposemath.so.0:go_pose_hom_convert
libposemath.so.0:go_pose_identity
libposemath.so.0:go_pose_inv
libposemath.so.0:go_pose_pose_compare
libposemath.so.0:go_pose_pose_interp
libposemath.so.0:go_pose_pose_mult
libposemath.so.0:go_pose_scale_mult
libposemath.so.0:go_pose_screw_mult
libposemath.so.0:go_pose_this
libposemath.so.0:go_quadratic_solve
libposemath.so.0:go_quartic_solve
libposemath.so.0:go_quat_cart_mult
libposemath.so.0:go_quat_identity
libposemath.so.0:go_quat_inv
libposemath.so.0:go_quat_is_norm
libposemath.so.0:go_quat_mag
libposemath.so.0:go_quat_mat_convert
libposemath.so.0:go_quat_matrix_convert
libposemath.so.0:go_quat_norm
libposemath.so.0:go_quat_quat_compare
libposemath.so.0:go_quat_quat_mult
libposemath.so.0:go_quat_rpy_convert
libposemath.so.0:go_quat_rvec_convert
libposemath.so.0:go_quat_scale_mult
libposemath.so.0:go_quat_unit
libposemath.so.0:go_quat_zyx_convert
libposemath.so.0:go_quat_zyz_convert
libposemath.so.0:go_rpy_mat_convert
libposemath.so.0:go_rpy_quat_convert
libposemath.so.0:go_rpy_rvec_convert
libposemath.so.0:go_rpy_zyx_convert
libposemath.so.0:go_rpy_zyz_convert
libposemath.so.0:go_rvec_cart_convert
libposemath.so.0:go_rvec_mat_convert
libposemath.so.0:go_rvec_quat_convert
libposemath.so.0:go_rvec_rpy_convert
libposemath.so.0:go_rvec_rvec_compare
libposemath.so.0:go_rvec_scale_mult
libposemath.so.0:go_rvec_zyx_convert
libposemath.so.0:go_rvec_zyz_convert
libposemath.so.0:go_set_singular_epsilon
libposemath.so.0:go_sph_cart_convert
libposemath.so.0:go_sph_cyl_convert
libposemath.so.0:go_tridiag_ql
libposemath.so.0:go_tridiag_reduce
libposemath.so.0:go_vector_cart_convert
libposemath.so.0:go_zyx_mat_convert
libposemath.so.0:go_zyx_quat_convert
libposemath.so.0:go_zyx_rpy_convert
libposemath.so.0:go_zyx_rvec_convert
libposemath.so.0:go_zyx_zyz_convert
libposemath.so.0:go_zyz_mat_convert
libposemath.so.0:go_zyz_quat_convert
libposemath.so.0:go_zyz_rpy_convert
libposemath.so.0:go_zyz_rvec_convert
libposemath.so.0:go_zyz_zyx_convert
libposemath.so.0:lubksb
libposemath.so.0:ludcmp
libposemath.so.0:pmAxisAngleQuatConvert
libposemath.so.0:pmCartAbs
libposemath.so.0:pmCartCartAdd
libposemath.so.0:pmCartCartAddEq
libposemath.so.0:pmCartCartCompare
libposemath.so.0:pmCartCartCross
libposemath.so.0:pmCartCartDisp
libposemath.so.0:pmCartCartDiv
libposemath.so.0:pmCartCartDot
libposemath.so.0:pmCartCartMult
libposemath.so.0:pmCartCartProj
libposemath.so.0:pmCartCartSub
libposemath.so.0:pmCartCartSubEq
libposemath.so.0:pmCartCylConvert
libposemath.so.0:pmCartInfNorm
libposemath.so.0:pmCartInv
libposemath.so.0:pmCartInvEq
libposemath.so.0:pmCartIsNorm
libposemath.so.0:pmCartLineInit
libposemath.so.0:pmCartLinePoint
libposemath.so.0:pmCartLineStretch
libposemath.so.0:pmCartMag
libposemath.so.0:pmCartMagSq
libposemath.so.0:pmCartNeg
libposemath.so.0:pmCartNegEq
libposemath.so.0:pmCartPlaneProj
libposemath.so.0:pmCartScalDiv
libposemath.so.0:pmCartScalDivEq
libposemath.so.0:pmCartScalMult
libposemath.so.0:pmCartScalMultEq
libposemath.so.0:pmCartSphConvert
libposemath.so.0:pmCartUnit
libposemath.so.0:pmCartUnitEq
libposemath.so.0:pmCircleInit
libposemath.so.0:pmCirclePoint
libposemath.so.0:pmCircleStretch
libposemath.so.0:pmCylCartConvert
libposemath.so.0:pmCylSphConvert
libposemath.so.0:pmHomInv
libposemath.so.0:pmHomPoseConvert
libposemath.so.0:pmLineInit
libposemath.so.0:pmLinePoint
libposemath.so.0:pmMatCartMult
libposemath.so.0:pmMatInv
libposemath.so.0:pmMatIsNorm
libposemath.so.0:pmMatMatMult
libposemath.so.0:pmMatNorm
libposemath.so.0:pmMatQuatConvert
libposemath.so.0:pmMatRotConvert
libposemath.so.0:pmMatRpyConvert
libposemath.so.0:pmMatZyxConvert
libposemath.so.0:pmMatZyzConvert
libposemath.so.0:pmPoseCartMult
libposemath.so.0:pmPoseHomConvert
libposemath.so.0:pmPoseInv
libposemath.so.0:pmPosePoseCompare
libposemath.so.0:pmPosePoseMult
libposemath.so.0:pmQuatAxisAngleMult
libposemath.so.0:pmQuatCartMult
libposemath.so.0:pmQuatInv
libposemath.so.0:pmQuatIsNorm
libposemath.so.0:pmQuatMag
libposemath.so.0:pmQuatMatConvert
libposemath.so.0:pmQuatNorm
libposemath.so.0:pmQuatQuatCompare
libposemath.so.0:pmQuatQuatMult
libposemath.so.0:pmQuatRotConvert
libposemath.so.0:pmQuatRpyConvert
libposemath.so.0:pmQuatScalDiv
libposemath.so.0:pmQuatScalMult
libposemath.so.0:pmQuatZyxConvert
libposemath.so.0:pmQuatZyzConvert
libposemath.so.0:pmRotIsNorm
libposemath.so.0:pmRotMatConvert
libposemath.so.0:pmRotNorm
libposemath.so.0:pmRotQuatConvert
libposemath.so.0:pmRotRpyConvert
libposemath.so.0:pmRotScalDiv
libposemath.so.0:pmRotScalMult
libposemath.so.0:pmRotZyxConvert
libposemath.so.0:pmRotZyzConvert
libposemath.so.0:pmRpyMatConvert
libposemath.so.0:pmRpyQuatConvert
libposemath.so.0:pmRpyRotConvert
libposemath.so.0:pmRpyZyxConvert
libposemath.so.0:pmRpyZyzConvert
libposemath.so.0:pmSphCartConvert
libposemath.so.0:pmSphCylConvert
libposemath.so.0:pmSqrt
libposemath.so.0:pmZyxMatConvert
libposemath.so.0:pmZyxQuatConvert
libposemath.so.0:pmZyxRotConvert
libposemath.so.0:pmZyxRpyConvert
libposemath.so.0:pmZyxZyzConvert
libposemath.so.0:pmZyzMatConvert
libposemath.so.0:pmZyzQuatConvert
libposemath.so.0:pmZyzRotConvert
libposemath.so.0:pmZyzRpyConvert
libposemath.so.0:pm_sincos
libpyplugin.so.0:_Z14handle_pyerrorB5cxx11v
libpyplugin.so.0:_ZN12PythonPlugin10initializeEv
libpyplugin.so.0:_ZN12PythonPlugin10run_stringEPKcRN5boost6python3api6objectEb
libpyplugin.so.0:_ZN12PythonPlugin11call_methodEN5boost6python3api6objectERS3_
libpyplugin.so.0:_ZN12PythonPlugin11instantiateEP8_inittab
libpyplugin.so.0:_ZN12PythonPlugin11is_callableEPKcS1_
libpyplugin.so.0:_ZN12PythonPlugin4callEPKcS1_N5boost6python3api6objectES5_RS5_
libpyplugin.so.0:_ZN12PythonPlugin6reloadEv
libpyplugin.so.0:_ZN12PythonPlugin9configureEPKcS1_
libpyplugin.so.0:_ZN12PythonPluginC1EP8_inittab
libpyplugin.so.0:_ZN12PythonPluginC2EP8_inittab
libpyplugin.so.0:_ZN5boost6detail8function17reference_managerIPFvvEE6manageERKNS1_15function_bufferERS6_NS1_30functor_manager_operation_typeE
libpyplugin.so.0:_ZN5boost6detail8function26void_function_ref_invoker0IPFvvEvE6invokeERNS1_15function_bufferE
libpyplugin.so.0:_ZN5boost6python6detail7rethrowEv
librs274.so.0:PyInit_emccanon
librs274.so.0:PyInit_interpreter
librs274.so.0:_Z11nurbs_pointdjSt6vectorI13CONTROL_POINTSaIS0_EES_IjSaIjEE
librs274.so.0:_Z12export_Blockv
librs274.so.0:_Z12set_endpointdd
librs274.so.0:_Z13enqueue_DWELLd
librs274.so.0:_Z13export_Arraysv
librs274.so.0:_Z13nurbs_tangentdjSt6vectorI13CONTROL_POINTSaIS0_EES_IjSaIjEE
librs274.so.0:_Z14dequeue_canonsP5setup
librs274.so.0:_Z14handle_pyerrorB5cxx11v
librs274.so.0:_Z15enqueue_COMMENTPKc
librs274.so.0:_Z15enqueue_MIST_ONv
librs274.so.0:_Z15export_EmcTypesv
librs274.so.0:_Z16enqueue_ARC_FEEDP5setupidddddiddddddd
librs274.so.0:_Z16enqueue_FLOOD_ONv
librs274.so.0:_Z16enqueue_MIST_OFFv
librs274.so.0:_Z16export_Internalsv
librs274.so.0:_Z17enqueue_FLOOD_OFFv
librs274.so.0:_Z17export_ParamClassv
librs274.so.0:_Z17interp_from_shlibPKc
librs274.so.0:_Z18currentAxisOffsetAP5setup
librs274.so.0:_Z18currentAxisOffsetBP5setup
librs274.so.0:_Z18currentAxisOffsetCP5setup
librs274.so.0:_Z18currentAxisOffsetXP5setup
librs274.so.0:_Z18currentAxisOffsetYP5setup
librs274.so.0:_Z18currentAxisOffsetZP5setup
librs274.so.0:_Z18currentWorkOffsetAP5setup
librs274.so.0:_Z18currentWorkOffsetBP5setup
librs274.so.0:_Z18currentWorkOffsetCP5setup
librs274.so.0:_Z18currentWorkOffsetXP5setup
librs274.so.0:_Z18currentWorkOffsetYP5setup
librs274.so.0:_Z18currentWorkOffsetZP5setup
librs274.so.0:_Z19knot_vector_creatorjj
librs274.so.0:_Z20enqueue_START_CHANGEv
librs274.so.0:_Z20init_module_emccanonv
librs274.so.0:_Z21enqueue_SET_FEED_MODEii
librs274.so.0:_Z21enqueue_SET_FEED_RATEd
librs274.so.0:_Z21enqueue_STRAIGHT_FEEDP5setupidddddddddddd
librs274.so.0:_Z22enqueue_M_USER_COMMANDidd
librs274.so.0:_Z22enqueue_ORIENT_SPINDLEidi
librs274.so.0:_Z23init_module_interpreterv
librs274.so.0:_Z24enqueue_SET_SPINDLE_MODEid
librs274.so.0:_Z25enqueue_SET_SPINDLE_SPEEDid
librs274.so.0:_Z25enqueue_STRAIGHT_TRAVERSEP5setupidddddddddddd
librs274.so.0:_Z28enqueue_STOP_SPINDLE_TURNINGi
librs274.so.0:_Z29translateInterpreterExceptionRK20InterpreterException
librs274.so.0:_Z2qcv
librs274.so.0:_Z31enqueue_START_SPINDLE_CLOCKWISEi
librs274.so.0:_Z36enqueue_WAIT_ORIENT_SPINDLE_COMPLETEid
librs274.so.0:_Z38enqueue_START_SPINDLE_COUNTERCLOCKWISEi
librs274.so.0:_Z4NmixjjdSt6vectorIjSaIjEE
librs274.so.0:_Z4RdendjSt6vectorI13CONTROL_POINTSaIS0_EES_IjSaIjEE
librs274.so.0:_Z8currentAP5setup
librs274.so.0:_Z8currentBP5setup
librs274.so.0:_Z8currentCP5setup
librs274.so.0:_Z8currentXP5setup
librs274.so.0:_Z8currentYP5setup
librs274.so.0:_Z8currentZP5setup
librs274.so.0:_Z8qc_resetv
librs274.so.0:_Z8qc_scaled
librs274.so.0:_Z8strstorePKc
librs274.so.0:_Z8toStringB5cxx116GCodes
librs274.so.0:_ZN10InterpBaseD0Ev
librs274.so.0:_ZN10InterpBaseD1Ev
librs274.so.0:_ZN10InterpBaseD2Ev
librs274.so.0:_ZN10ParamClass6lengthEv
librs274.so.0:_ZN10ParamClass6localsEv
librs274.so.0:_ZN10ParamClass7getitemEN5boost6python3api6objectE
librs274.so.0:_ZN10ParamClass7globalsEv
librs274.so.0:_ZN10ParamClass7setitemEN5boost6python3api6objectEd
librs274.so.0:_ZN10ParamClassC1ER6Interp
librs274.so.0:_ZN10ParamClassC2ER6Interp
librs274.so.0:_ZN10pyplusplus10containers12static_sized9array_1_tI12block_structLm10EE8set_itemEmRKS3_
librs274.so.0:_ZN10pyplusplus10containers12static_sized9array_1_tI14context_structLm10EE8set_itemEmRKS3_
librs274.so.0:_ZN10pyplusplus10containers12static_sized9array_1_tI16CANON_TOOL_TABLELm1001EE8set_itemEmRKS3_
librs274.so.0:_ZN10pyplusplus10containers12static_sized9array_1_tIdLm30EE8set_itemEmd
librs274.so.0:_ZN10pyplusplus10containers12static_sized9array_1_tIdLm5602EE8set_itemEmd
librs274.so.0:_ZN10pyplusplus10containers12static_sized9array_1_tIdLm5EE8set_itemEmd
librs274.so.0:_ZN10pyplusplus10containers12static_sized9array_1_tIdLm8EE8set_itemEmd
librs274.so.0:_ZN10pyplusplus10containers12static_sized9array_1_tIiLm10EE8set_itemEmi
librs274.so.0:_ZN10pyplusplus10containers12static_sized9array_1_tIiLm11EE8set_itemEmi
librs274.so.0:_ZN10pyplusplus10containers12static_sized9array_1_tIiLm17EE8set_itemEmi
librs274.so.0:_ZN12block_structC1Ev
librs274.so.0:_ZN12block_structC2Ev
librs274.so.0:_ZN13round_segment10climb_onlyERSt7complexIdEP11motion_base
librs274.so.0:_ZN13round_segment13intersect_endEP16straight_segment
librs274.so.0:_ZN13round_segment13intersect_endEPS_
librs274.so.0:_ZN13round_segment14intersection_zEdRSt5dequeIdSaIdEE
librs274.so.0:_ZN13round_segment4diveERSt7complexIdEdP11motion_baseb
librs274.so.0:_ZN13round_segment5climbERSt7complexIdEP11motion_base
librs274.so.0:_ZN13round_segment9intersectEP7segment
librs274.so.0:_ZN14context_struct5clearEv
librs274.so.0:_ZN14context_structC1Ev
librs274.so.0:_ZN14context_structC2Ev
librs274.so.0:_ZN16straight_segment10climb_onlyERSt7complexIdEP11motion_base
librs274.so.0:_ZN16straight_segment13intersect_endEP13round_segment
librs274.so.0:_ZN16straight_segment13intersect_endEPS_
librs274.so.0:_ZN16straight_segment14intersection_zEdRSt5dequeIdSaIdEE
librs274.so.0:_ZN16straight_segment4diveERSt7complexIdEdP11motion_baseb
librs274.so.0:_ZN16straight_segment5climbERSt7complexIdEP11motion_base
librs274.so.0:_ZN16straight_segment9intersectEP7segment
librs274.so.0:_ZN20InterpreterException13get_line_textB5cxx11Ev
librs274.so.0:_ZN20InterpreterException15get_line_numberEv
librs274.so.0:_ZN20InterpreterException17get_error_messageB5cxx11Ev
librs274.so.0:_ZN3g7x12add_distanceEd
librs274.so.0:_ZN3g7x6pocketEiSt7complexIdESt14_List_iteratorISt10unique_ptrI7segmentSt14default_deleteIS4_EEEP11motion_base
librs274.so.0:_ZN5boost6detail8function15functor_managerINS_3_bi6bind_tIbNS_6python6detail19translate_exceptionI20InterpreterExceptionPFvRKS8_EEENS3_5list3INS_3argILi1EEENSF_ILi2EEENS3_5valueISC_EEEEEEE6manageERKNS1_15function_bufferERSN_NS1_30functor_manager_operation_typeE
librs274.so.0:_ZN5boost6detail8function17reference_managerIPFvvEE6manageERKNS1_15function_bufferERS6_NS1_30functor_manager_operation_typeE
librs274.so.0:_ZN5boost6detail8function21function_obj_invoker2INS_3_bi6bind_tIbNS_6python6detail19translate_exceptionI20InterpreterExceptionPFvRKS8_EEENS3_5list3INS_3argILi1EEENSF_ILi2EEENS3_5valueISC_EEEEEEbRKNS6_17exception_handlerERKNS_9function0IvEEE6invokeERNS1_15function_bufferESO_SS_
librs274.so.0:_ZN5boost6detail8function26void_function_ref_invoker0IPFvvEvE6invokeERNS1_15function_bufferE
librs274.so.0:_ZN5boost6python14indexing_suiteISt3mapIPKc12remap_struct10nocase_cmpSaISt4pairIKS4_S5_EEENS0_6detail26final_map_derived_policiesISB_Lb0EEELb0ELb1ES5_S4_S4_E13base_containsERSB_P7_object
librs274.so.0:_ZN5boost6python14indexing_suiteISt3mapIPKc12remap_struct10nocase_cmpSaISt4pairIKS4_S5_EEENS0_6detail26final_map_derived_policiesISB_Lb0EEELb0ELb1ES5_S4_S4_E13base_get_itemENS0_14back_referenceIRSB_EEP7_object
librs274.so.0:_ZN5boost6python14indexing_suiteISt3mapIPKc12remap_struct10nocase_cmpSaISt4pairIKS4_S5_EEENS0_6detail26final_map_derived_policiesISB_Lb0EEELb0ELb1ES5_S4_S4_E13base_set_itemERSB_P7_objectSI_
librs274.so.0:_ZN5boost6python14indexing_suiteISt3mapIPKc12remap_struct10nocase_cmpSaISt4pairIKS4_S5_EEENS0_6detail26final_map_derived_policiesISB_Lb0EEELb0ELb1ES5_S4_S4_E16base_delete_itemERSB_P7_object
librs274.so.0:_ZN5boost6python14indexing_suiteISt3mapIPKc12remap_struct10nocase_cmpSaISt4pairIKS4_S5_EEENS0_6detail26final_map_derived_policiesISB_Lb0EEELb0ELb1ES5_S4_S4_E9base_sizeERSB_
librs274.so.0:_ZN5boost6python14indexing_suiteISt3mapIPKc22parameter_value_struct10nocase_cmpSaISt4pairIKS4_S5_EEENS0_6detail26final_map_derived_policiesISB_Lb0EEELb0ELb1ES5_S4_S4_E13base_containsERSB_P7_object
librs274.so.0:_ZN5boost6python14indexing_suiteISt3mapIPKc22parameter_value_struct10nocase_cmpSaISt4pairIKS4_S5_EEENS0_6detail26final_map_derived_policiesISB_Lb0EEELb0ELb1ES5_S4_S4_E13base_get_itemENS0_14back_referenceIRSB_EEP7_object
librs274.so.0:_ZN5boost6python14indexing_suiteISt3mapIPKc22parameter_value_struct10nocase_cmpSaISt4pairIKS4_S5_EEENS0_6detail26final_map_derived_policiesISB_Lb0EEELb0ELb1ES5_S4_S4_E13base_set_itemERSB_P7_objectSI_
librs274.so.0:_ZN5boost6python14indexing_suiteISt3mapIPKc22parameter_value_struct10nocase_cmpSaISt4pairIKS4_S5_EEENS0_6detail26final_map_derived_policiesISB_Lb0EEELb0ELb1ES5_S4_S4_E16base_delete_itemERSB_P7_object
librs274.so.0:_ZN5boost6python14indexing_suiteISt3mapIPKc22parameter_value_struct10nocase_cmpSaISt4pairIKS4_S5_EEENS0_6detail26final_map_derived_policiesISB_Lb0EEELb0ELb1ES5_S4_S4_E9base_sizeERSB_
librs274.so.0:_ZN5boost6python18map_indexing_suiteISt3mapIPKc12remap_struct10nocase_cmpSaISt4pairIKS4_S5_EEELb0ENS0_6detail26final_map_derived_policiesISB_Lb0EEEE10print_elemERKS9_
librs274.so.0:_ZN5boost6python18map_indexing_suiteISt3mapIPKc12remap_struct10nocase_cmpSaISt4pairIKS4_S5_EEELb0ENS0_6detail26final_map_derived_policiesISB_Lb0EEEE7get_keyERS9_
librs274.so.0:_ZN5boost6python18map_indexing_suiteISt3mapIPKc12remap_struct10nocase_cmpSaISt4pairIKS4_S5_EEELb0ENS0_6detail26final_map_derived_policiesISB_Lb0EEEE8get_dataERS9_
librs274.so.0:_ZN5boost6python18map_indexing_suiteISt3mapIPKc22parameter_value_struct10nocase_cmpSaISt4pairIKS4_S5_EEELb0ENS0_6detail26final_map_derived_policiesISB_Lb0EEEE10print_elemERKS9_
librs274.so.0:_ZN5boost6python18map_indexing_suiteISt3mapIPKc22parameter_value_struct10nocase_cmpSaISt4pairIKS4_S5_EEELb0ENS0_6detail26final_map_derived_policiesISB_Lb0EEEE7get_keyERS9_
librs274.so.0:_ZN5boost6python18map_indexing_suiteISt3mapIPKc22parameter_value_struct10nocase_cmpSaISt4pairIKS4_S5_EEELb0ENS0_6detail26final_map_derived_policiesISB_Lb0EEEE8get_dataERS9_
librs274.so.0:_ZN5boost6python19to_python_converterI10ParamClassNS0_7objects18class_cref_wrapperIS2_NS3_13make_instanceIS2_NS3_12value_holderIS2_EEEEEELb1EE15get_pytype_implEv
librs274.so.0:_ZN5boost6python19to_python_converterI12remap_structNS0_7objects18class_cref_wrapperIS2_NS3_13make_instanceIS2_NS3_12value_holderIS2_EEEEEELb1EE15get_pytype_implEv
librs274.so.0:_ZN5boost6python19to_python_converterI16CANON_TOOL_TABLENS0_7objects18class_cref_wrapperIS2_NS3_13make_instanceIS2_NS3_12value_holderIS2_EEEEEELb1EE15get_pytype_implEv
librs274.so.0:_ZN5boost6python19to_python_converterI20InterpreterExceptionNS0_7objects18class_cref_wrapperIS2_NS3_13make_instanceIS2_NS3_12value_holderIS2_EEEEEELb1EE15get_pytype_implEv
librs274.so.0:_ZN5boost6python19to_python_converterI22parameter_value_structNS0_7objects18class_cref_wrapperIS2_NS3_13make_instanceIS2_NS3_12value_holderIS2_EEEEEELb1EE15get_pytype_implEv
librs274.so.0:_ZN5boost6python19to_python_converterI7EmcPoseNS0_7objects18class_cref_wrapperIS2_NS3_13make_instanceIS2_NS3_12value_holderIS2_EEEEEELb1EE15get_pytype_implEv
librs274.so.0:_ZN5boost6python19to_python_converterIN10pyplusplus10containers12static_sized9array_1_tI12block_structLm10EEENS0_7objects18class_cref_wrapperIS7_NS8_13make_instanceIS7_NS8_12value_holderIS7_EEEEEELb1EE15get_pytype_implEv
librs274.so.0:_ZN5boost6python19to_python_converterIN10pyplusplus10containers12static_sized9array_1_tI14context_structLm10EEENS0_7objects18class_cref_wrapperIS7_NS8_13make_instanceIS7_NS8_12value_holderIS7_EEEEEELb1EE15get_pytype_implEv
librs274.so.0:_ZN5boost6python19to_python_converterIN10pyplusplus10containers12static_sized9array_1_tI16CANON_TOOL_TABLELm1001EEENS0_7objects18class_cref_wrapperIS7_NS8_13make_instanceIS7_NS8_12value_holderIS7_EEEEEELb1EE15get_pytype_implEv
librs274.so.0:_ZN5boost6python19to_python_converterIN10pyplusplus10containers12static_sized9array_1_tIdLm30EEENS0_7objects18class_cref_wrapperIS6_NS7_13make_instanceIS6_NS7_12value_holderIS6_EEEEEELb1EE15get_pytype_implEv
librs274.so.0:_ZN5boost6python19to_python_converterIN10pyplusplus10containers12static_sized9array_1_tIdLm5602EEENS0_7objects18class_cref_wrapperIS6_NS7_13make_instanceIS6_NS7_12value_holderIS6_EEEEEELb1EE15get_pytype_implEv
librs274.so.0:_ZN5boost6python19to_python_converterIN10pyplusplus10containers12static_sized9array_1_tIdLm5EEENS0_7objects18class_cref_wrapperIS6_NS7_13make_instanceIS6_NS7_12value_holderIS6_EEEEEELb1EE15get_pytype_implEv
librs274.so.0:_ZN5boost6python19to_python_converterIN10pyplusplus10containers12static_sized9array_1_tIdLm8EEENS0_7objects18class_cref_wrapperIS6_NS7_13make_instanceIS6_NS7_12value_holderIS6_EEEEEELb1EE15get_pytype_implEv
librs274.so.0:_ZN5boost6python19to_python_converterIN10pyplusplus10containers12static_sized9array_1_tIiLm10EEENS0_7objects18class_cref_wrapperIS6_NS7_13make_instanceIS6_NS7_12value_holderIS6_EEEEEELb1EE15get_pytype_implEv
librs274.so.0:_ZN5boost6python19to_python_converterIN10pyplusplus10containers12static_sized9array_1_tIiLm11EEENS0_7objects18class_cref_wrapperIS6_NS7_13make_instanceIS6_NS7_12value_holderIS6_EEEEEELb1EE15get_pytype_implEv
librs274.so.0:_ZN5boost6python19to_python_converterIN10pyplusplus10containers12static_sized9array_1_tIiLm17EEENS0_7objects18class_cref_wrapperIS6_NS7_13make_instanceIS6_NS7_12value_holderIS6_EEEEEELb1EE15get_pytype_implEv
librs274.so.0:_ZN5boost6python19to_python_converterINS0_6detail17container_elementISt3mapIPKc12remap_struct10nocase_cmpSaISt4pairIKS6_S7_EEES6_NS2_26final_map_derived_policiesISD_Lb0EEEEENS0_7objects19class_value_wrapperISG_NSH_17make_ptr_instanceIS7_NSH_14pointer_holderISG_S7_EEEEEELb1EE15get_pytype_implEv
librs274.so.0:_ZN5boost6python19to_python_converterINS0_6detail17container_elementISt3mapIPKc22parameter_value_struct10nocase_cmpSaISt4pairIKS6_S7_EEES6_NS2_26final_map_derived_policiesISD_Lb0EEEEENS0_7objects19class_value_wrapperISG_NSH_17make_ptr_instanceIS7_NSH_14pointer_holderISG_S7_EEEEEELb1EE15get_pytype_implEv
librs274.so.0:_ZN5boost6python19to_python_converterINS0_7objects14iterator_rangeINS0_25return_internal_referenceILm1ENS0_21default_call_policiesEEESt17_Rb_tree_iteratorISt4pairIKPKc12remap_structEEEENS2_18class_cref_wrapperISF_NS2_13make_instanceISF_NS2_12value_holderISF_EEEEEELb1EE15get_pytype_implEv
librs274.so.0:_ZN5boost6python19to_python_converterINS0_7objects14iterator_rangeINS0_25return_internal_referenceILm1ENS0_21default_call_policiesEEESt17_Rb_tree_iteratorISt4pairIKPKc22parameter_value_structEEEENS2_18class_cref_wrapperISF_NS2_13make_instanceISF_NS2_12value_holderISF_EEEEEELb1EE15get_pytype_implEv
librs274.so.0:_ZN5boost6python19to_python_converterISt4pairIKPKc12remap_structENS0_7objects18class_cref_wrapperIS7_NS8_13make_instanceIS7_NS8_12value_holderIS7_EEEEEELb1EE15get_pytype_implEv
librs274.so.0:_ZN5boost6python19to_python_converterISt4pairIKPKc22parameter_value_structENS0_7objects18class_cref_wrapperIS7_NS8_13make_instanceIS7_NS8_12value_holderIS7_EEEEEELb1EE15get_pytype_implEv
librs274.so.0:_ZN5boost6python5enum_I10CANON_AXISE23convertible_from_pythonEP7_object
librs274.so.0:_ZN5boost6python5enum_I10CANON_AXISE9constructEP7_objectPNS0_9converter30rvalue_from_python_stage1_dataE
librs274.so.0:_ZN5boost6python5enum_I10CANON_AXISE9to_pythonEPKv
librs274.so.0:_ZN5boost6python5enum_I10CANON_SIDEE23convertible_from_pythonEP7_object
librs274.so.0:_ZN5boost6python5enum_I10CANON_SIDEE9constructEP7_objectPNS0_9converter30rvalue_from_python_stage1_dataE
librs274.so.0:_ZN5boost6python5enum_I10CANON_SIDEE9to_pythonEPKv
librs274.so.0:_ZN5boost6python5enum_I11CANON_PLANEE23convertible_from_pythonEP7_object
librs274.so.0:_ZN5boost6python5enum_I11CANON_PLANEE9constructEP7_objectPNS0_9converter30rvalue_from_python_stage1_dataE
librs274.so.0:_ZN5boost6python5enum_I11CANON_PLANEE9to_pythonEPKv
librs274.so.0:_ZN5boost6python5enum_I11CANON_UNITSE23convertible_from_pythonEP7_object
librs274.so.0:_ZN5boost6python5enum_I11CANON_UNITSE9constructEP7_objectPNS0_9converter30rvalue_from_python_stage1_dataE
librs274.so.0:_ZN5boost6python5enum_I11CANON_UNITSE9to_pythonEPKv
librs274.so.0:_ZN5boost6python5enum_I12InterpReturnE23convertible_from_pythonEP7_object
librs274.so.0:_ZN5boost6python5enum_I12InterpReturnE9constructEP7_objectPNS0_9converter30rvalue_from_python_stage1_dataE
librs274.so.0:_ZN5boost6python5enum_I12InterpReturnE9to_pythonEPKv
librs274.so.0:_ZN5boost6python5enum_I12RETRACT_MODEE23convertible_from_pythonEP7_object
librs274.so.0:_ZN5boost6python5enum_I12RETRACT_MODEE9constructEP7_objectPNS0_9converter30rvalue_from_python_stage1_dataE
librs274.so.0:_ZN5boost6python5enum_I12RETRACT_MODEE9to_pythonEPKv
librs274.so.0:_ZN5boost6python5enum_I12SPINDLE_MODEE23convertible_from_pythonEP7_object
librs274.so.0:_ZN5boost6python5enum_I12SPINDLE_MODEE9constructEP7_objectPNS0_9converter30rvalue_from_python_stage1_dataE
librs274.so.0:_ZN5boost6python5enum_I12SPINDLE_MODEE9to_pythonEPKv
librs274.so.0:_ZN5boost6python5enum_I13DISTANCE_MODEE23convertible_from_pythonEP7_object
librs274.so.0:_ZN5boost6python5enum_I13DISTANCE_MODEE9constructEP7_objectPNS0_9converter30rvalue_from_python_stage1_dataE
librs274.so.0:_ZN5boost6python5enum_I13DISTANCE_MODEE9to_pythonEPKv
librs274.so.0:_ZN5boost6python5enum_I15CANON_DIRECTIONE23convertible_from_pythonEP7_object
librs274.so.0:_ZN5boost6python5enum_I15CANON_DIRECTIONE9constructEP7_objectPNS0_9converter30rvalue_from_python_stage1_dataE
librs274.so.0:_ZN5boost6python5enum_I15CANON_DIRECTIONE9to_pythonEPKv
librs274.so.0:_ZN5boost6python5enum_I17CANON_MOTION_MODEE23convertible_from_pythonEP7_object
librs274.so.0:_ZN5boost6python5enum_I17CANON_MOTION_MODEE9constructEP7_objectPNS0_9converter30rvalue_from_python_stage1_dataE
librs274.so.0:_ZN5boost6python5enum_I17CANON_MOTION_MODEE9to_pythonEPKv
librs274.so.0:_ZN5boost6python5enum_I20CANON_FEED_REFERENCEE23convertible_from_pythonEP7_object
librs274.so.0:_ZN5boost6python5enum_I20CANON_FEED_REFERENCEE9constructEP7_objectPNS0_9converter30rvalue_from_python_stage1_dataE
librs274.so.0:_ZN5boost6python5enum_I20CANON_FEED_REFERENCEE9to_pythonEPKv
librs274.so.0:_ZN5boost6python5enum_I21CANON_SPEED_FEED_MODEE23convertible_from_pythonEP7_object
librs274.so.0:_ZN5boost6python5enum_I21CANON_SPEED_FEED_MODEE9constructEP7_objectPNS0_9converter30rvalue_from_python_stage1_dataE
librs274.so.0:_ZN5boost6python5enum_I21CANON_SPEED_FEED_MODEE9to_pythonEPKv
librs274.so.0:_ZN5boost6python5enum_I21CUTTER_COMP_DIRECTIONE23convertible_from_pythonEP7_object
librs274.so.0:_ZN5boost6python5enum_I21CUTTER_COMP_DIRECTIONE9constructEP7_objectPNS0_9converter30rvalue_from_python_stage1_dataE
librs274.so.0:_ZN5boost6python5enum_I21CUTTER_COMP_DIRECTIONE9to_pythonEPKv
librs274.so.0:_ZN5boost6python5enum_I9FEED_MODEE23convertible_from_pythonEP7_object
librs274.so.0:_ZN5boost6python5enum_I9FEED_MODEE9constructEP7_objectPNS0_9converter30rvalue_from_python_stage1_dataE
librs274.so.0:_ZN5boost6python5enum_I9FEED_MODEE9to_pythonEPKv
librs274.so.0:_ZN5boost6python6detail14iterators_implILb0EE5applyISt3mapIPKc12remap_struct10nocase_cmpSaISt4pairIKS7_S8_EEEE3endERSE_
librs274.so.0:_ZN5boost6python6detail14iterators_implILb0EE5applyISt3mapIPKc12remap_struct10nocase_cmpSaISt4pairIKS7_S8_EEEE5beginERSE_
librs274.so.0:_ZN5boost6python6detail14iterators_implILb0EE5applyISt3mapIPKc22parameter_value_struct10nocase_cmpSaISt4pairIKS7_S8_EEEE3endERSE_
librs274.so.0:_ZN5boost6python6detail14iterators_implILb0EE5applyISt3mapIPKc22parameter_value_struct10nocase_cmpSaISt4pairIKS7_S8_EEEE5beginERSE_
librs274.so.0:_ZN5boost6python6detail21converter_target_typeINS0_15to_python_valueIRK10ParamClassEEE10get_pytypeEv
librs274.so.0:_ZN5boost6python6detail21converter_target_typeINS0_15to_python_valueIRK11CANON_PLANEEEE10get_pytypeEv
librs274.so.0:_ZN5boost6python6detail21converter_target_typeINS0_15to_python_valueIRK15CANON_DIRECTIONEEE10get_pytypeEv
librs274.so.0:_ZN5boost6python6detail21converter_target_typeINS0_15to_python_valueIRK16CANON_TOOL_TABLEEEE10get_pytypeEv
librs274.so.0:_ZN5boost6python6detail21converter_target_typeINS0_15to_python_valueIRK17CANON_MOTION_MODEEEE10get_pytypeEv
librs274.so.0:_ZN5boost6python6detail21converter_target_typeINS0_15to_python_valueIRK7EmcPoseEEE10get_pytypeEv
librs274.so.0:_ZN5boost6python6detail21converter_target_typeINS0_15to_python_valueIRKN10pyplusplus10containers12static_sized9array_1_tI12block_structLm10EEEEEE10get_pytypeEv
librs274.so.0:_ZN5boost6python6detail21converter_target_typeINS0_15to_python_valueIRKN10pyplusplus10containers12static_sized9array_1_tI14context_structLm10EEEEEE10get_pytypeEv
librs274.so.0:_ZN5boost6python6detail21converter_target_typeINS0_15to_python_valueIRKN10pyplusplus10containers12static_sized9array_1_tI16CANON_TOOL_TABLELm1001EEEEEE10get_pytypeEv
librs274.so.0:_ZN5boost6python6detail21converter_target_typeINS0_15to_python_valueIRKN10pyplusplus10containers12static_sized9array_1_tIdLm30EEEEEE10get_pytypeEv
librs274.so.0:_ZN5boost6python6detail21converter_target_typeINS0_15to_python_valueIRKN10pyplusplus10containers12static_sized9array_1_tIdLm5602EEEEEE10get_pytypeEv
librs274.so.0:_ZN5boost6python6detail21converter_target_typeINS0_15to_python_valueIRKN10pyplusplus10containers12static_sized9array_1_tIdLm5EEEEEE10get_pytypeEv
librs274.so.0:_ZN5boost6python6detail21converter_target_typeINS0_15to_python_valueIRKN10pyplusplus10containers12static_sized9array_1_tIdLm8EEEEEE10get_pytypeEv
librs274.so.0:_ZN5boost6python6detail21converter_target_typeINS0_15to_python_valueIRKN10pyplusplus10containers12static_sized9array_1_tIiLm10EEEEEE10get_pytypeEv
librs274.so.0:_ZN5boost6python6detail21converter_target_typeINS0_15to_python_valueIRKN10pyplusplus10containers12static_sized9array_1_tIiLm11EEEEEE10get_pytypeEv
librs274.so.0:_ZN5boost6python6detail21converter_target_typeINS0_15to_python_valueIRKN10pyplusplus10containers12static_sized9array_1_tIiLm17EEEEEE10get_pytypeEv
librs274.so.0:_ZN5boost6python6detail21converter_target_typeINS0_15to_python_valueIRKNS0_3api6objectEEEE10get_pytypeEv
librs274.so.0:_ZN5boost6python6detail21converter_target_typeINS0_15to_python_valueIRKNS0_4listEEEE10get_pytypeEv
librs274.so.0:_ZN5boost6python6detail21converter_target_typeINS0_15to_python_valueIRKNS0_7objects14iterator_rangeINS0_25return_internal_referenceILm1ENS0_21default_call_policiesEEESt17_Rb_tree_iteratorISt4pairIKPKc12remap_structEEEEEEE10get_pytypeEv
librs274.so.0:_ZN5boost6python6detail21converter_target_typeINS0_15to_python_valueIRKNS0_7objects14iterator_rangeINS0_25return_internal_referenceILm1ENS0_21default_call_policiesEEESt17_Rb_tree_iteratorISt4pairIKPKc22parameter_value_structEEEEEEE10get_pytypeEv
librs274.so.0:_ZN5boost6python6detail21converter_target_typeINS0_15to_python_valueIRKNSt7__cxx1112basic_stringIcSt11char_traitsIcESaIcEEEEEE10get_pytypeEv
librs274.so.0:_ZN5boost6python6detail21converter_target_typeINS0_15to_python_valueIRKPKcEEE10get_pytypeEv
librs274.so.0:_ZN5boost6python6detail21converter_target_typeINS0_15to_python_valueIRKbEEE10get_pytypeEv
librs274.so.0:_ZN5boost6python6detail21converter_target_typeINS0_15to_python_valueIRKdEEE10get_pytypeEv
librs274.so.0:_ZN5boost6python6detail21converter_target_typeINS0_15to_python_valueIRKiEEE10get_pytypeEv
librs274.so.0:_ZN5boost6python6detail21converter_target_typeINS0_15to_python_valueIRKmEEE10get_pytypeEv
librs274.so.0:_ZN5boost6python6detail21converter_target_typeINS0_15to_python_valueIRPKcEEE10get_pytypeEv
librs274.so.0:_ZN5boost6python6detail21converter_target_typeINS0_15to_python_valueIRbEEE10get_pytypeEv
librs274.so.0:_ZN5boost6python6detail21converter_target_typeINS0_15to_python_valueIRdEEE10get_pytypeEv
librs274.so.0:_ZN5boost6python6detail21converter_target_typeINS0_15to_python_valueIRhEEE10get_pytypeEv
librs274.so.0:_ZN5boost6python6detail21converter_target_typeINS0_15to_python_valueIRiEEE10get_pytypeEv
librs274.so.0:_ZN5boost6python6detail21converter_target_typeINS0_15to_python_valueIRjEEE10get_pytypeEv
librs274.so.0:_ZN5boost6python6detail21converter_target_typeINS0_15to_python_valueIRlEEE10get_pytypeEv
librs274.so.0:_ZN5boost6python6detail21converter_target_typeINS0_18to_python_indirectIR11PmCartesianNS1_21make_reference_holderEEEE10get_pytypeEv
librs274.so.0:_ZN5boost6python6detail21converter_target_typeINS0_18to_python_indirectIR12remap_structNS1_21make_reference_holderEEEE10get_pytypeEv
librs274.so.0:_ZN5boost6python6detail21converter_target_typeINS0_18to_python_indirectIR22parameter_value_structNS1_21make_reference_holderEEEE10get_pytypeEv
librs274.so.0:_ZN5boost6python6detail21converter_target_typeINS0_18to_python_indirectIR7EmcPoseNS1_21make_reference_holderEEEE10get_pytypeEv
librs274.so.0:_ZN5boost6python6detail21converter_target_typeINS0_18to_python_indirectIRK12block_structNS1_21make_reference_holderEEEE10get_pytypeEv
librs274.so.0:_ZN5boost6python6detail21converter_target_typeINS0_18to_python_indirectIRK14context_structNS1_21make_reference_holderEEEE10get_pytypeEv
librs274.so.0:_ZN5boost6python6detail21converter_target_typeINS0_18to_python_indirectIRK16CANON_TOOL_TABLENS1_21make_reference_holderEEEE10get_pytypeEv
librs274.so.0:_ZN5boost6python6detail21converter_target_typeINS0_18to_python_indirectIRP12remap_structNS1_21make_reference_holderEEEE10get_pytypeEv
librs274.so.0:_ZN5boost6python6detail21converter_target_typeINS0_18to_python_indirectIRSt3mapIPKc22parameter_value_struct10nocase_cmpSaISt4pairIKS6_S7_EEENS1_21make_reference_holderEEEE10get_pytypeEv
librs274.so.0:_ZN5boost6python6detail21converter_target_typeINS0_18to_python_indirectIRSt4pairIKPKc12remap_structENS1_21make_reference_holderEEEE10get_pytypeEv
librs274.so.0:_ZN5boost6python6detail21converter_target_typeINS0_18to_python_indirectIRSt4pairIKPKc22parameter_value_structENS1_21make_reference_holderEEEE10get_pytypeEv
librs274.so.0:_ZN5boost6python6detail21converter_target_typeINS0_18to_python_indirectIRSt6bitsetILm29EENS1_21make_reference_holderEEEE10get_pytypeEv
librs274.so.0:_ZN5boost6python6detail21converter_target_typeIiE10get_pytypeEv
librs274.so.0:_ZN5boost6python6detail7rethrowEv
librs274.so.0:_ZN5boost6python7objects11make_holderILi0EE5applyINS1_12value_holderI11PmCartesianEENS_3mpl7vector0IN4mpl_2naEEEE7executeEP7_object
librs274.so.0:_ZN5boost6python7objects11make_holderILi0EE5applyINS1_12value_holderI12remap_structEENS_3mpl7vector0IN4mpl_2naEEEE7executeEP7_object
librs274.so.0:_ZN5boost6python7objects11make_holderILi0EE5applyINS1_12value_holderI22parameter_value_structEENS_3mpl7vector0IN4mpl_2naEEEE7executeEP7_object
librs274.so.0:_ZN5boost6python7objects11make_holderILi0EE5applyINS1_12value_holderI7EmcPoseEENS_3mpl7vector0IN4mpl_2naEEEE7executeEP7_object
librs274.so.0:_ZN5boost6python7objects11make_holderILi0EE5applyINS1_12value_holderISt4pairIKPKc12remap_structEEENS_3mpl7vector0IN4mpl_2naEEEE7executeEP7_object
librs274.so.0:_ZN5boost6python7objects11make_holderILi0EE5applyINS1_12value_holderISt4pairIKPKc22parameter_value_structEEENS_3mpl7vector0IN4mpl_2naEEEE7executeEP7_object
librs274.so.0:_ZN5boost6python7objects11make_holderILi3EE5applyINS1_12value_holderI20InterpreterExceptionEENS_3mpl7vector3INSt7__cxx1112basic_stringIcSt11char_traitsIcESaIcEEEiSF_EEE7executeEP7_objectSF_iSF_
librs274.so.0:_ZN5boost6python7objects24polymorphic_id_generatorI20InterpreterExceptionE7executeEPv
librs274.so.0:_ZN5boost6python7objects24polymorphic_id_generatorI6InterpE7executeEPv
librs274.so.0:_ZN5boost6python7objects28non_polymorphic_id_generatorI10ParamClassE7executeEPv
librs274.so.0:_ZN5boost6python7objects28non_polymorphic_id_generatorI11PmCartesianE7executeEPv
librs274.so.0:_ZN5boost6python7objects28non_polymorphic_id_generatorI12block_structE7executeEPv
librs274.so.0:_ZN5boost6python7objects28non_polymorphic_id_generatorI12remap_structE7executeEPv
librs274.so.0:_ZN5boost6python7objects28non_polymorphic_id_generatorI14context_structE7executeEPv
librs274.so.0:_ZN5boost6python7objects28non_polymorphic_id_generatorI16CANON_TOOL_TABLEE7executeEPv
librs274.so.0:_ZN5boost6python7objects28non_polymorphic_id_generatorI22parameter_value_structE7executeEPv
librs274.so.0:_ZN5boost6python7objects28non_polymorphic_id_generatorI7EmcPoseE7executeEPv
librs274.so.0:_ZN5boost6python7objects28non_polymorphic_id_generatorIN10pyplusplus10containers12static_sized9array_1_tI12block_structLm10EEEE7executeEPv
librs274.so.0:_ZN5boost6python7objects28non_polymorphic_id_generatorIN10pyplusplus10containers12static_sized9array_1_tI14context_structLm10EEEE7executeEPv
librs274.so.0:_ZN5boost6python7objects28non_polymorphic_id_generatorIN10pyplusplus10containers12static_sized9array_1_tI16CANON_TOOL_TABLELm1001EEEE7executeEPv
librs274.so.0:_ZN5boost6python7objects28non_polymorphic_id_generatorIN10pyplusplus10containers12static_sized9array_1_tIdLm30EEEE7executeEPv
librs274.so.0:_ZN5boost6python7objects28non_polymorphic_id_generatorIN10pyplusplus10containers12static_sized9array_1_tIdLm5602EEEE7executeEPv
librs274.so.0:_ZN5boost6python7objects28non_polymorphic_id_generatorIN10pyplusplus10containers12static_sized9array_1_tIdLm5EEEE7executeEPv
librs274.so.0:_ZN5boost6python7objects28non_polymorphic_id_generatorIN10pyplusplus10containers12static_sized9array_1_tIdLm8EEEE7executeEPv
librs274.so.0:_ZN5boost6python7objects28non_polymorphic_id_generatorIN10pyplusplus10containers12static_sized9array_1_tIiLm10EEEE7executeEPv
librs274.so.0:_ZN5boost6python7objects28non_polymorphic_id_generatorIN10pyplusplus10containers12static_sized9array_1_tIiLm11EEEE7executeEPv
librs274.so.0:_ZN5boost6python7objects28non_polymorphic_id_generatorIN10pyplusplus10containers12static_sized9array_1_tIiLm17EEEE7executeEPv
librs274.so.0:_ZN5boost6python7objects28non_polymorphic_id_generatorINS1_14iterator_rangeINS0_25return_internal_referenceILm1ENS0_21default_call_policiesEEESt17_Rb_tree_iteratorISt4pairIKPKc12remap_structEEEEE7executeEPv
librs274.so.0:_ZN5boost6python7objects28non_polymorphic_id_generatorINS1_14iterator_rangeINS0_25return_internal_referenceILm1ENS0_21default_call_policiesEEESt17_Rb_tree_iteratorISt4pairIKPKc22parameter_value_structEEEEE7executeEPv
librs274.so.0:_ZN5boost6python7objects28non_polymorphic_id_generatorISt3mapIPKc12remap_struct10nocase_cmpSaISt4pairIKS5_S6_EEEE7executeEPv
librs274.so.0:_ZN5boost6python7objects28non_polymorphic_id_generatorISt3mapIPKc22parameter_value_struct10nocase_cmpSaISt4pairIKS5_S6_EEEE7executeEPv
librs274.so.0:_ZN5boost6python7objects28non_polymorphic_id_generatorISt4pairIKPKc12remap_structEE7executeEPv
librs274.so.0:_ZN5boost6python7objects28non_polymorphic_id_generatorISt4pairIKPKc22parameter_value_structEE7executeEPv
librs274.so.0:_ZN5boost6python9converter21as_to_python_functionI10ParamClassNS0_7objects18class_cref_wrapperIS3_NS4_13make_instanceIS3_NS4_12value_holderIS3_EEEEEEE7convertEPKv
librs274.so.0:_ZN5boost6python9converter21as_to_python_functionI12remap_structNS0_7objects18class_cref_wrapperIS3_NS4_13make_instanceIS3_NS4_12value_holderIS3_EEEEEEE7convertEPKv
librs274.so.0:_ZN5boost6python9converter21as_to_python_functionI16CANON_TOOL_TABLENS0_7objects18class_cref_wrapperIS3_NS4_13make_instanceIS3_NS4_12value_holderIS3_EEEEEEE7convertEPKv
librs274.so.0:_ZN5boost6python9converter21as_to_python_functionI20InterpreterExceptionNS0_7objects18class_cref_wrapperIS3_NS4_13make_instanceIS3_NS4_12value_holderIS3_EEEEEEE7convertEPKv
librs274.so.0:_ZN5boost6python9converter21as_to_python_functionI22parameter_value_structNS0_7objects18class_cref_wrapperIS3_NS4_13make_instanceIS3_NS4_12value_holderIS3_EEEEEEE7convertEPKv
librs274.so.0:_ZN5boost6python9converter21as_to_python_functionI7EmcPoseNS0_7objects18class_cref_wrapperIS3_NS4_13make_instanceIS3_NS4_12value_holderIS3_EEEEEEE7convertEPKv
librs274.so.0:_ZN5boost6python9converter21as_to_python_functionIN10pyplusplus10containers12static_sized9array_1_tI12block_structLm10EEENS0_7objects18class_cref_wrapperIS8_NS9_13make_instanceIS8_NS9_12value_holderIS8_EEEEEEE7convertEPKv
librs274.so.0:_ZN5boost6python9converter21as_to_python_functionIN10pyplusplus10containers12static_sized9array_1_tI14context_structLm10EEENS0_7objects18class_cref_wrapperIS8_NS9_13make_instanceIS8_NS9_12value_holderIS8_EEEEEEE7convertEPKv
librs274.so.0:_ZN5boost6python9converter21as_to_python_functionIN10pyplusplus10containers12static_sized9array_1_tI16CANON_TOOL_TABLELm1001EEENS0_7objects18class_cref_wrapperIS8_NS9_13make_instanceIS8_NS9_12value_holderIS8_EEEEEEE7convertEPKv
librs274.so.0:_ZN5boost6python9converter21as_to_python_functionIN10pyplusplus10containers12static_sized9array_1_tIdLm30EEENS0_7objects18class_cref_wrapperIS7_NS8_13make_instanceIS7_NS8_12value_holderIS7_EEEEEEE7convertEPKv
librs274.so.0:_ZN5boost6python9converter21as_to_python_functionIN10pyplusplus10containers12static_sized9array_1_tIdLm5602EEENS0_7objects18class_cref_wrapperIS7_NS8_13make_instanceIS7_NS8_12value_holderIS7_EEEEEEE7convertEPKv
librs274.so.0:_ZN5boost6python9converter21as_to_python_functionIN10pyplusplus10containers12static_sized9array_1_tIdLm5EEENS0_7objects18class_cref_wrapperIS7_NS8_13make_instanceIS7_NS8_12value_holderIS7_EEEEEEE7convertEPKv
librs274.so.0:_ZN5boost6python9converter21as_to_python_functionIN10pyplusplus10containers12static_sized9array_1_tIdLm8EEENS0_7objects18class_cref_wrapperIS7_NS8_13make_instanceIS7_NS8_12value_holderIS7_EEEEEEE7convertEPKv
librs274.so.0:_ZN5boost6python9converter21as_to_python_functionIN10pyplusplus10containers12static_sized9array_1_tIiLm10EEENS0_7objects18class_cref_wrapperIS7_NS8_13make_instanceIS7_NS8_12value_holderIS7_EEEEEEE7convertEPKv
librs274.so.0:_ZN5boost6python9converter21as_to_python_functionIN10pyplusplus10containers12static_sized9array_1_tIiLm11EEENS0_7objects18class_cref_wrapperIS7_NS8_13make_instanceIS7_NS8_12value_holderIS7_EEEEEEE7convertEPKv
librs274.so.0:_ZN5boost6python9converter21as_to_python_functionIN10pyplusplus10containers12static_sized9array_1_tIiLm17EEENS0_7objects18class_cref_wrapperIS7_NS8_13make_instanceIS7_NS8_12value_holderIS7_EEEEEEE7convertEPKv
librs274.so.0:_ZN5boost6python9converter21as_to_python_functionINS0_6detail17container_elementISt3mapIPKc12remap_struct10nocase_cmpSaISt4pairIKS7_S8_EEES7_NS3_26final_map_derived_policiesISE_Lb0EEEEENS0_7objects19class_value_wrapperISH_NSI_17make_ptr_instanceIS8_NSI_14pointer_holderISH_S8_EEEEEEE7convertEPKv
librs274.so.0:_ZN5boost6python9converter21as_to_python_functionINS0_6detail17container_elementISt3mapIPKc22parameter_value_struct10nocase_cmpSaISt4pairIKS7_S8_EEES7_NS3_26final_map_derived_policiesISE_Lb0EEEEENS0_7objects19class_value_wrapperISH_NSI_17make_ptr_instanceIS8_NSI_14pointer_holderISH_S8_EEEEEEE7convertEPKv
librs274.so.0:_ZN5boost6python9converter21as_to_python_functionINS0_7objects14iterator_rangeINS0_25return_internal_referenceILm1ENS0_21default_call_policiesEEESt17_Rb_tree_iteratorISt4pairIKPKc12remap_structEEEENS3_18class_cref_wrapperISG_NS3_13make_instanceISG_NS3_12value_holderISG_EEEEEEE7convertEPKv
librs274.so.0:_ZN5boost6python9converter21as_to_python_functionINS0_7objects14iterator_rangeINS0_25return_internal_referenceILm1ENS0_21default_call_policiesEEESt17_Rb_tree_iteratorISt4pairIKPKc22parameter_value_structEEEENS3_18class_cref_wrapperISG_NS3_13make_instanceISG_NS3_12value_holderISG_EEEEEEE7convertEPKv
librs274.so.0:_ZN5boost6python9converter21as_to_python_functionISt4pairIKPKc12remap_structENS0_7objects18class_cref_wrapperIS8_NS9_13make_instanceIS8_NS9_12value_holderIS8_EEEEEEE7convertEPKv
librs274.so.0:_ZN5boost6python9converter21as_to_python_functionISt4pairIKPKc22parameter_value_structENS0_7objects18class_cref_wrapperIS8_NS9_13make_instanceIS8_NS9_12value_holderIS8_EEEEEEE7convertEPKv
librs274.so.0:_ZN5boost6python9converter22shared_ptr_from_pythonI10ParamClassNS_10shared_ptrEE11convertibleEP7_object
librs274.so.0:_ZN5boost6python9converter22shared_ptr_from_pythonI10ParamClassNS_10shared_ptrEE9constructEP7_objectPNS1_30rvalue_from_python_stage1_dataE
librs274.so.0:_ZN5boost6python9converter22shared_ptr_from_pythonI10ParamClassSt10shared_ptrE11convertibleEP7_object
librs274.so.0:_ZN5boost6python9converter22shared_ptr_from_pythonI10ParamClassSt10shared_ptrE9constructEP7_objectPNS1_30rvalue_from_python_stage1_dataE
librs274.so.0:_ZN5boost6python9converter22shared_ptr_from_pythonI11PmCartesianNS_10shared_ptrEE11convertibleEP7_object
librs274.so.0:_ZN5boost6python9converter22shared_ptr_from_pythonI11PmCartesianNS_10shared_ptrEE9constructEP7_objectPNS1_30rvalue_from_python_stage1_dataE
librs274.so.0:_ZN5boost6python9converter22shared_ptr_from_pythonI11PmCartesianSt10shared_ptrE11convertibleEP7_object
librs274.so.0:_ZN5boost6python9converter22shared_ptr_from_pythonI11PmCartesianSt10shared_ptrE9constructEP7_objectPNS1_30rvalue_from_python_stage1_dataE
librs274.so.0:_ZN5boost6python9converter22shared_ptr_from_pythonI12block_structNS_10shared_ptrEE11convertibleEP7_object
librs274.so.0:_ZN5boost6python9converter22shared_ptr_from_pythonI12block_structNS_10shared_ptrEE9constructEP7_objectPNS1_30rvalue_from_python_stage1_dataE
librs274.so.0:_ZN5boost6python9converter22shared_ptr_from_pythonI12block_structSt10shared_ptrE11convertibleEP7_object
librs274.so.0:_ZN5boost6python9converter22shared_ptr_from_pythonI12block_structSt10shared_ptrE9constructEP7_objectPNS1_30rvalue_from_python_stage1_dataE
librs274.so.0:_ZN5boost6python9converter22shared_ptr_from_pythonI12remap_structNS_10shared_ptrEE11convertibleEP7_object
librs274.so.0:_ZN5boost6python9converter22shared_ptr_from_pythonI12remap_structNS_10shared_ptrEE9constructEP7_objectPNS1_30rvalue_from_python_stage1_dataE
librs274.so.0:_ZN5boost6python9converter22shared_ptr_from_pythonI12remap_structSt10shared_ptrE11convertibleEP7_object
librs274.so.0:_ZN5boost6python9converter22shared_ptr_from_pythonI12remap_structSt10shared_ptrE9constructEP7_objectPNS1_30rvalue_from_python_stage1_dataE
librs274.so.0:_ZN5boost6python9converter22shared_ptr_from_pythonI14context_structNS_10shared_ptrEE11convertibleEP7_object
librs274.so.0:_ZN5boost6python9converter22shared_ptr_from_pythonI14context_structNS_10shared_ptrEE9constructEP7_objectPNS1_30rvalue_from_python_stage1_dataE
librs274.so.0:_ZN5boost6python9converter22shared_ptr_from_pythonI14context_structSt10shared_ptrE11convertibleEP7_object
librs274.so.0:_ZN5boost6python9converter22shared_ptr_from_pythonI14context_structSt10shared_ptrE9constructEP7_objectPNS1_30rvalue_from_python_stage1_dataE
librs274.so.0:_ZN5boost6python9converter22shared_ptr_from_pythonI16CANON_TOOL_TABLENS_10shared_ptrEE11convertibleEP7_object
librs274.so.0:_ZN5boost6python9converter22shared_ptr_from_pythonI16CANON_TOOL_TABLENS_10shared_ptrEE9constructEP7_objectPNS1_30rvalue_from_python_stage1_dataE
librs274.so.0:_ZN5boost6python9converter22shared_ptr_from_pythonI16CANON_TOOL_TABLESt10shared_ptrE11convertibleEP7_object
librs274.so.0:_ZN5boost6python9converter22shared_ptr_from_pythonI16CANON_TOOL_TABLESt10shared_ptrE9constructEP7_objectPNS1_30rvalue_from_python_stage1_dataE
librs274.so.0:_ZN5boost6python9converter22shared_ptr_from_pythonI20InterpreterExceptionNS_10shared_ptrEE11convertibleEP7_object
librs274.so.0:_ZN5boost6python9converter22shared_ptr_from_pythonI20InterpreterExceptionNS_10shared_ptrEE9constructEP7_objectPNS1_30rvalue_from_python_stage1_dataE
librs274.so.0:_ZN5boost6python9converter22shared_ptr_from_pythonI20InterpreterExceptionSt10shared_ptrE11convertibleEP7_object
librs274.so.0:_ZN5boost6python9converter22shared_ptr_from_pythonI20InterpreterExceptionSt10shared_ptrE9constructEP7_objectPNS1_30rvalue_from_python_stage1_dataE
librs274.so.0:_ZN5boost6python9converter22shared_ptr_from_pythonI22parameter_value_structNS_10shared_ptrEE11convertibleEP7_object
librs274.so.0:_ZN5boost6python9converter22shared_ptr_from_pythonI22parameter_value_structNS_10shared_ptrEE9constructEP7_objectPNS1_30rvalue_from_python_stage1_dataE
librs274.so.0:_ZN5boost6python9converter22shared_ptr_from_pythonI22parameter_value_structSt10shared_ptrE11convertibleEP7_object
librs274.so.0:_ZN5boost6python9converter22shared_ptr_from_pythonI22parameter_value_structSt10shared_ptrE9constructEP7_objectPNS1_30rvalue_from_python_stage1_dataE
librs274.so.0:_ZN5boost6python9converter22shared_ptr_from_pythonI6InterpNS_10shared_ptrEE11convertibleEP7_object
librs274.so.0:_ZN5boost6python9converter22shared_ptr_from_pythonI6InterpNS_10shared_ptrEE9constructEP7_objectPNS1_30rvalue_from_python_stage1_dataE
librs274.so.0:_ZN5boost6python9converter22shared_ptr_from_pythonI6InterpSt10shared_ptrE11convertibleEP7_object
librs274.so.0:_ZN5boost6python9converter22shared_ptr_from_pythonI6InterpSt10shared_ptrE9constructEP7_objectPNS1_30rvalue_from_python_stage1_dataE
librs274.so.0:_ZN5boost6python9converter22shared_ptr_from_pythonI7EmcPoseNS_10shared_ptrEE11convertibleEP7_object
librs274.so.0:_ZN5boost6python9converter22shared_ptr_from_pythonI7EmcPoseNS_10shared_ptrEE9constructEP7_objectPNS1_30rvalue_from_python_stage1_dataE
librs274.so.0:_ZN5boost6python9converter22shared_ptr_from_pythonI7EmcPoseSt10shared_ptrE11convertibleEP7_object
librs274.so.0:_ZN5boost6python9converter22shared_ptr_from_pythonI7EmcPoseSt10shared_ptrE9constructEP7_objectPNS1_30rvalue_from_python_stage1_dataE
librs274.so.0:_ZN5boost6python9converter22shared_ptr_from_pythonIN10pyplusplus10containers12static_sized9array_1_tI12block_structLm10EEENS_10shared_ptrEE11convertibleEP7_object
librs274.so.0:_ZN5boost6python9converter22shared_ptr_from_pythonIN10pyplusplus10containers12static_sized9array_1_tI12block_structLm10EEENS_10shared_ptrEE9constructEP7_objectPNS1_30rvalue_from_python_stage1_dataE
librs274.so.0:_ZN5boost6python9converter22shared_ptr_from_pythonIN10pyplusplus10containers12static_sized9array_1_tI12block_structLm10EEESt10shared_ptrE11convertibleEP7_object
librs274.so.0:_ZN5boost6python9converter22shared_ptr_from_pythonIN10pyplusplus10containers12static_sized9array_1_tI12block_structLm10EEESt10shared_ptrE9constructEP7_objectPNS1_30rvalue_from_python_stage1_dataE
librs274.so.0:_ZN5boost6python9converter22shared_ptr_from_pythonIN10pyplusplus10containers12static_sized9array_1_tI14context_structLm10EEENS_10shared_ptrEE11convertibleEP7_object
librs274.so.0:_ZN5boost6python9converter22shared_ptr_from_pythonIN10pyplusplus10containers12static_sized9array_1_tI14context_structLm10EEENS_10shared_ptrEE9constructEP7_objectPNS1_30rvalue_from_python_stage1_dataE
librs274.so.0:_ZN5boost6python9converter22shared_ptr_from_pythonIN10pyplusplus10containers12static_sized9array_1_tI14context_structLm10EEESt10shared_ptrE11convertibleEP7_object
librs274.so.0:_ZN5boost6python9converter22shared_ptr_from_pythonIN10pyplusplus10containers12static_sized9array_1_tI14context_structLm10EEESt10shared_ptrE9constructEP7_objectPNS1_30rvalue_from_python_stage1_dataE
librs274.so.0:_ZN5boost6python9converter22shared_ptr_from_pythonIN10pyplusplus10containers12static_sized9array_1_tI16CANON_TOOL_TABLELm1001EEENS_10shared_ptrEE11convertibleEP7_object
librs274.so.0:_ZN5boost6python9converter22shared_ptr_from_pythonIN10pyplusplus10containers12static_sized9array_1_tI16CANON_TOOL_TABLELm1001EEENS_10shared_ptrEE9constructEP7_objectPNS1_30rvalue_from_python_stage1_dataE
librs274.so.0:_ZN5boost6python9converter22shared_ptr_from_pythonIN10pyplusplus10containers12static_sized9array_1_tI16CANON_TOOL_TABLELm1001EEESt10shared_ptrE11convertibleEP7_object
librs274.so.0:_ZN5boost6python9converter22shared_ptr_from_pythonIN10pyplusplus10containers12static_sized9array_1_tI16CANON_TOOL_TABLELm1001EEESt10shared_ptrE9constructEP7_objectPNS1_30rvalue_from_python_stage1_dataE
librs274.so.0:_ZN5boost6python9converter22shared_ptr_from_pythonIN10pyplusplus10containers12static_sized9array_1_tIdLm30EEENS_10shared_ptrEE11convertibleEP7_object
librs274.so.0:_ZN5boost6python9converter22shared_ptr_from_pythonIN10pyplusplus10containers12static_sized9array_1_tIdLm30EEENS_10shared_ptrEE9constructEP7_objectPNS1_30rvalue_from_python_stage1_dataE
librs274.so.0:_ZN5boost6python9converter22shared_ptr_from_pythonIN10pyplusplus10containers12static_sized9array_1_tIdLm30EEESt10shared_ptrE11convertibleEP7_object
librs274.so.0:_ZN5boost6python9converter22shared_ptr_from_pythonIN10pyplusplus10containers12static_sized9array_1_tIdLm30EEESt10shared_ptrE9constructEP7_objectPNS1_30rvalue_from_python_stage1_dataE
librs274.so.0:_ZN5boost6python9converter22shared_ptr_from_pythonIN10pyplusplus10containers12static_sized9array_1_tIdLm5602EEENS_10shared_ptrEE11convertibleEP7_object
librs274.so.0:_ZN5boost6python9converter22shared_ptr_from_pythonIN10pyplusplus10containers12static_sized9array_1_tIdLm5602EEENS_10shared_ptrEE9constructEP7_objectPNS1_30rvalue_from_python_stage1_dataE
librs274.so.0:_ZN5boost6python9converter22shared_ptr_from_pythonIN10pyplusplus10containers12static_sized9array_1_tIdLm5602EEESt10shared_ptrE11convertibleEP7_object
librs274.so.0:_ZN5boost6python9converter22shared_ptr_from_pythonIN10pyplusplus10containers12static_sized9array_1_tIdLm5602EEESt10shared_ptrE9constructEP7_objectPNS1_30rvalue_from_python_stage1_dataE
librs274.so.0:_ZN5boost6python9converter22shared_ptr_from_pythonIN10pyplusplus10containers12static_sized9array_1_tIdLm5EEENS_10shared_ptrEE11convertibleEP7_object
librs274.so.0:_ZN5boost6python9converter22shared_ptr_from_pythonIN10pyplusplus10containers12static_sized9array_1_tIdLm5EEENS_10shared_ptrEE9constructEP7_objectPNS1_30rvalue_from_python_stage1_dataE
librs274.so.0:_ZN5boost6python9converter22shared_ptr_from_pythonIN10pyplusplus10containers12static_sized9array_1_tIdLm5EEESt10shared_ptrE11convertibleEP7_object
librs274.so.0:_ZN5boost6python9converter22shared_ptr_from_pythonIN10pyplusplus10containers12static_sized9array_1_tIdLm5EEESt10shared_ptrE9constructEP7_objectPNS1_30rvalue_from_python_stage1_dataE
librs274.so.0:_ZN5boost6python9converter22shared_ptr_from_pythonIN10pyplusplus10containers12static_sized9array_1_tIdLm8EEENS_10shared_ptrEE11convertibleEP7_object
librs274.so.0:_ZN5boost6python9converter22shared_ptr_from_pythonIN10pyplusplus10containers12static_sized9array_1_tIdLm8EEENS_10shared_ptrEE9constructEP7_objectPNS1_30rvalue_from_python_stage1_dataE
librs274.so.0:_ZN5boost6python9converter22shared_ptr_from_pythonIN10pyplusplus10containers12static_sized9array_1_tIdLm8EEESt10shared_ptrE11convertibleEP7_object
librs274.so.0:_ZN5boost6python9converter22shared_ptr_from_pythonIN10pyplusplus10containers12static_sized9array_1_tIdLm8EEESt10shared_ptrE9constructEP7_objectPNS1_30rvalue_from_python_stage1_dataE
librs274.so.0:_ZN5boost6python9converter22shared_ptr_from_pythonIN10pyplusplus10containers12static_sized9array_1_tIiLm10EEENS_10shared_ptrEE11convertibleEP7_object
librs274.so.0:_ZN5boost6python9converter22shared_ptr_from_pythonIN10pyplusplus10containers12static_sized9array_1_tIiLm10EEENS_10shared_ptrEE9constructEP7_objectPNS1_30rvalue_from_python_stage1_dataE
librs274.so.0:_ZN5boost6python9converter22shared_ptr_from_pythonIN10pyplusplus10containers12static_sized9array_1_tIiLm10EEESt10shared_ptrE11convertibleEP7_object
librs274.so.0:_ZN5boost6python9converter22shared_ptr_from_pythonIN10pyplusplus10containers12static_sized9array_1_tIiLm10EEESt10shared_ptrE9constructEP7_objectPNS1_30rvalue_from_python_stage1_dataE
librs274.so.0:_ZN5boost6python9converter22shared_ptr_from_pythonIN10pyplusplus10containers12static_sized9array_1_tIiLm11EEENS_10shared_ptrEE11convertibleEP7_object
librs274.so.0:_ZN5boost6python9converter22shared_ptr_from_pythonIN10pyplusplus10containers12static_sized9array_1_tIiLm11EEENS_10shared_ptrEE9constructEP7_objectPNS1_30rvalue_from_python_stage1_dataE
librs274.so.0:_ZN5boost6python9converter22shared_ptr_from_pythonIN10pyplusplus10containers12static_sized9array_1_tIiLm11EEESt10shared_ptrE11convertibleEP7_object
librs274.so.0:_ZN5boost6python9converter22shared_ptr_from_pythonIN10pyplusplus10containers12static_sized9array_1_tIiLm11EEESt10shared_ptrE9constructEP7_objectPNS1_30rvalue_from_python_stage1_dataE
librs274.so.0:_ZN5boost6python9converter22shared_ptr_from_pythonIN10pyplusplus10containers12static_sized9array_1_tIiLm17EEENS_10shared_ptrEE11convertibleEP7_object
librs274.so.0:_ZN5boost6python9converter22shared_ptr_from_pythonIN10pyplusplus10containers12static_sized9array_1_tIiLm17EEENS_10shared_ptrEE9constructEP7_objectPNS1_30rvalue_from_python_stage1_dataE
librs274.so.0:_ZN5boost6python9converter22shared_ptr_from_pythonIN10pyplusplus10containers12static_sized9array_1_tIiLm17EEESt10shared_ptrE11convertibleEP7_object
librs274.so.0:_ZN5boost6python9converter22shared_ptr_from_pythonIN10pyplusplus10containers12static_sized9array_1_tIiLm17EEESt10shared_ptrE9constructEP7_objectPNS1_30rvalue_from_python_stage1_dataE
librs274.so.0:_ZN5boost6python9converter22shared_ptr_from_pythonINS0_7objects14iterator_rangeINS0_25return_internal_referenceILm1ENS0_21default_call_policiesEEESt17_Rb_tree_iteratorISt4pairIKPKc12remap_structEEEENS_10shared_ptrEE11convertibleEP7_object
librs274.so.0:_ZN5boost6python9converter22shared_ptr_from_pythonINS0_7objects14iterator_rangeINS0_25return_internal_referenceILm1ENS0_21default_call_policiesEEESt17_Rb_tree_iteratorISt4pairIKPKc12remap_structEEEENS_10shared_ptrEE9constructEP7_objectPNS1_30rvalue_from_python_stage1_dataE
librs274.so.0:_ZN5boost6python9converter22shared_ptr_from_pythonINS0_7objects14iterator_rangeINS0_25return_internal_referenceILm1ENS0_21default_call_policiesEEESt17_Rb_tree_iteratorISt4pairIKPKc12remap_structEEEESt10shared_ptrE11convertibleEP7_object
librs274.so.0:_ZN5boost6python9converter22shared_ptr_from_pythonINS0_7objects14iterator_rangeINS0_25return_internal_referenceILm1ENS0_21default_call_policiesEEESt17_Rb_tree_iteratorISt4pairIKPKc12remap_structEEEESt10shared_ptrE9constructEP7_objectPNS1_30rvalue_from_python_stage1_dataE
librs274.so.0:_ZN5boost6python9converter22shared_ptr_from_pythonINS0_7objects14iterator_rangeINS0_25return_internal_referenceILm1ENS0_21default_call_policiesEEESt17_Rb_tree_iteratorISt4pairIKPKc22parameter_value_structEEEENS_10shared_ptrEE11convertibleEP7_object
librs274.so.0:_ZN5boost6python9converter22shared_ptr_from_pythonINS0_7objects14iterator_rangeINS0_25return_internal_referenceILm1ENS0_21default_call_policiesEEESt17_Rb_tree_iteratorISt4pairIKPKc22parameter_value_structEEEENS_10shared_ptrEE9constructEP7_objectPNS1_30rvalue_from_python_stage1_dataE
librs274.so.0:_ZN5boost6python9converter22shared_ptr_from_pythonINS0_7objects14iterator_rangeINS0_25return_internal_referenceILm1ENS0_21default_call_policiesEEESt17_Rb_tree_iteratorISt4pairIKPKc22parameter_value_structEEEESt10shared_ptrE11convertibleEP7_object
librs274.so.0:_ZN5boost6python9converter22shared_ptr_from_pythonINS0_7objects14iterator_rangeINS0_25return_internal_referenceILm1ENS0_21default_call_policiesEEESt17_Rb_tree_iteratorISt4pairIKPKc22parameter_value_structEEEESt10shared_ptrE9constructEP7_objectPNS1_30rvalue_from_python_stage1_dataE
librs274.so.0:_ZN5boost6python9converter22shared_ptr_from_pythonISt3mapIPKc12remap_struct10nocase_cmpSaISt4pairIKS5_S6_EEENS_10shared_ptrEE11convertibleEP7_object
librs274.so.0:_ZN5boost6python9converter22shared_ptr_from_pythonISt3mapIPKc12remap_struct10nocase_cmpSaISt4pairIKS5_S6_EEENS_10shared_ptrEE9constructEP7_objectPNS1_30rvalue_from_python_stage1_dataE
librs274.so.0:_ZN5boost6python9converter22shared_ptr_from_pythonISt3mapIPKc12remap_struct10nocase_cmpSaISt4pairIKS5_S6_EEESt10shared_ptrE11convertibleEP7_object
librs274.so.0:_ZN5boost6python9converter22shared_ptr_from_pythonISt3mapIPKc12remap_struct10nocase_cmpSaISt4pairIKS5_S6_EEESt10shared_ptrE9constructEP7_objectPNS1_30rvalue_from_python_stage1_dataE
librs274.so.0:_ZN5boost6python9converter22shared_ptr_from_pythonISt3mapIPKc22parameter_value_struct10nocase_cmpSaISt4pairIKS5_S6_EEENS_10shared_ptrEE11convertibleEP7_object
librs274.so.0:_ZN5boost6python9converter22shared_ptr_from_pythonISt3mapIPKc22parameter_value_struct10nocase_cmpSaISt4pairIKS5_S6_EEENS_10shared_ptrEE9constructEP7_objectPNS1_30rvalue_from_python_stage1_dataE
librs274.so.0:_ZN5boost6python9converter22shared_ptr_from_pythonISt3mapIPKc22parameter_value_struct10nocase_cmpSaISt4pairIKS5_S6_EEESt10shared_ptrE11convertibleEP7_object
librs274.so.0:_ZN5boost6python9converter22shared_ptr_from_pythonISt3mapIPKc22parameter_value_struct10nocase_cmpSaISt4pairIKS5_S6_EEESt10shared_ptrE9constructEP7_objectPNS1_30rvalue_from_python_stage1_dataE
librs274.so.0:_ZN5boost6python9converter22shared_ptr_from_pythonISt4pairIKPKc12remap_structENS_10shared_ptrEE11convertibleEP7_object
librs274.so.0:_ZN5boost6python9converter22shared_ptr_from_pythonISt4pairIKPKc12remap_structENS_10shared_ptrEE9constructEP7_objectPNS1_30rvalue_from_python_stage1_dataE
librs274.so.0:_ZN5boost6python9converter22shared_ptr_from_pythonISt4pairIKPKc12remap_structESt10shared_ptrE11convertibleEP7_object
librs274.so.0:_ZN5boost6python9converter22shared_ptr_from_pythonISt4pairIKPKc12remap_structESt10shared_ptrE9constructEP7_objectPNS1_30rvalue_from_python_stage1_dataE
librs274.so.0:_ZN5boost6python9converter22shared_ptr_from_pythonISt4pairIKPKc22parameter_value_structENS_10shared_ptrEE11convertibleEP7_object
librs274.so.0:_ZN5boost6python9converter22shared_ptr_from_pythonISt4pairIKPKc22parameter_value_structENS_10shared_ptrEE9constructEP7_objectPNS1_30rvalue_from_python_stage1_dataE
librs274.so.0:_ZN5boost6python9converter22shared_ptr_from_pythonISt4pairIKPKc22parameter_value_structESt10shared_ptrE11convertibleEP7_object
librs274.so.0:_ZN5boost6python9converter22shared_ptr_from_pythonISt4pairIKPKc22parameter_value_structESt10shared_ptrE9constructEP7_objectPNS1_30rvalue_from_python_stage1_dataE
librs274.so.0:_ZN5boost6python9converter23expected_pytype_for_argI10CANON_AXISE10get_pytypeEv
librs274.so.0:_ZN5boost6python9converter23expected_pytype_for_argI10ParamClassE10get_pytypeEv
librs274.so.0:_ZN5boost6python9converter23expected_pytype_for_argI11CANON_PLANEE10get_pytypeEv
librs274.so.0:_ZN5boost6python9converter23expected_pytype_for_argI11CANON_UNITSE10get_pytypeEv
librs274.so.0:_ZN5boost6python9converter23expected_pytype_for_argI12RETRACT_MODEE10get_pytypeEv
librs274.so.0:_ZN5boost6python9converter23expected_pytype_for_argI12SPINDLE_MODEE10get_pytypeEv
librs274.so.0:_ZN5boost6python9converter23expected_pytype_for_argI13DISTANCE_MODEE10get_pytypeEv
librs274.so.0:_ZN5boost6python9converter23expected_pytype_for_argI15CANON_DIRECTIONE10get_pytypeEv
librs274.so.0:_ZN5boost6python9converter23expected_pytype_for_argI16CANON_TOOL_TABLEE10get_pytypeEv
librs274.so.0:_ZN5boost6python9converter23expected_pytype_for_argI17CANON_MOTION_MODEE10get_pytypeEv
librs274.so.0:_ZN5boost6python9converter23expected_pytype_for_argI7EmcPoseE10get_pytypeEv
librs274.so.0:_ZN5boost6python9converter23expected_pytype_for_argI8StateTagE10get_pytypeEv
librs274.so.0:_ZN5boost6python9converter23expected_pytype_for_argIN10pyplusplus10containers12static_sized9array_1_tI12block_structLm10EEEE10get_pytypeEv
librs274.so.0:_ZN5boost6python9converter23expected_pytype_for_argIN10pyplusplus10containers12static_sized9array_1_tI14context_structLm10EEEE10get_pytypeEv
librs274.so.0:_ZN5boost6python9converter23expected_pytype_for_argIN10pyplusplus10containers12static_sized9array_1_tI16CANON_TOOL_TABLELm1001EEEE10get_pytypeEv
librs274.so.0:_ZN5boost6python9converter23expected_pytype_for_argIN10pyplusplus10containers12static_sized9array_1_tIdLm30EEEE10get_pytypeEv
librs274.so.0:_ZN5boost6python9converter23expected_pytype_for_argIN10pyplusplus10containers12static_sized9array_1_tIdLm5602EEEE10get_pytypeEv
librs274.so.0:_ZN5boost6python9converter23expected_pytype_for_argIN10pyplusplus10containers12static_sized9array_1_tIdLm5EEEE10get_pytypeEv
librs274.so.0:_ZN5boost6python9converter23expected_pytype_for_argIN10pyplusplus10containers12static_sized9array_1_tIdLm8EEEE10get_pytypeEv
librs274.so.0:_ZN5boost6python9converter23expected_pytype_for_argIN10pyplusplus10containers12static_sized9array_1_tIiLm10EEEE10get_pytypeEv
librs274.so.0:_ZN5boost6python9converter23expected_pytype_for_argIN10pyplusplus10containers12static_sized9array_1_tIiLm11EEEE10get_pytypeEv
librs274.so.0:_ZN5boost6python9converter23expected_pytype_for_argIN10pyplusplus10containers12static_sized9array_1_tIiLm17EEEE10get_pytypeEv
librs274.so.0:_ZN5boost6python9converter23expected_pytype_for_argINS0_14back_referenceIRSt3mapIPKc12remap_struct10nocase_cmpSaISt4pairIKS6_S7_EEEEEE10get_pytypeEv
librs274.so.0:_ZN5boost6python9converter23expected_pytype_for_argINS0_14back_referenceIRSt3mapIPKc22parameter_value_struct10nocase_cmpSaISt4pairIKS6_S7_EEEEEE10get_pytypeEv
librs274.so.0:_ZN5boost6python9converter23expected_pytype_for_argINS0_3api6objectEE10get_pytypeEv
librs274.so.0:_ZN5boost6python9converter23expected_pytype_for_argINS0_4listEE10get_pytypeEv
librs274.so.0:_ZN5boost6python9converter23expected_pytype_for_argINS0_7objects14iterator_rangeINS0_25return_internal_referenceILm1ENS0_21default_call_policiesEEESt17_Rb_tree_iteratorISt4pairIKPKc12remap_structEEEEE10get_pytypeEv
librs274.so.0:_ZN5boost6python9converter23expected_pytype_for_argINS0_7objects14iterator_rangeINS0_25return_internal_referenceILm1ENS0_21default_call_policiesEEESt17_Rb_tree_iteratorISt4pairIKPKc22parameter_value_structEEEEE10get_pytypeEv
librs274.so.0:_ZN5boost6python9converter23expected_pytype_for_argINSt7__cxx1112basic_stringIcSt11char_traitsIcESaIcEEEE10get_pytypeEv
librs274.so.0:_ZN5boost6python9converter23expected_pytype_for_argIP7_objectE10get_pytypeEv
librs274.so.0:_ZN5boost6python9converter23expected_pytype_for_argIPKcE10get_pytypeEv
librs274.so.0:_ZN5boost6python9converter23expected_pytype_for_argIPcE10get_pytypeEv
librs274.so.0:_ZN5boost6python9converter23expected_pytype_for_argIR10ParamClassE10get_pytypeEv
librs274.so.0:_ZN5boost6python9converter23expected_pytype_for_argIR11PmCartesianE10get_pytypeEv
librs274.so.0:_ZN5boost6python9converter23expected_pytype_for_argIR12block_structE10get_pytypeEv
librs274.so.0:_ZN5boost6python9converter23expected_pytype_for_argIR12remap_structE10get_pytypeEv
librs274.so.0:_ZN5boost6python9converter23expected_pytype_for_argIR14context_structE10get_pytypeEv
librs274.so.0:_ZN5boost6python9converter23expected_pytype_for_argIR16CANON_TOOL_TABLEE10get_pytypeEv
librs274.so.0:_ZN5boost6python9converter23expected_pytype_for_argIR20InterpreterExceptionE10get_pytypeEv
librs274.so.0:_ZN5boost6python9converter23expected_pytype_for_argIR22parameter_value_structE10get_pytypeEv
librs274.so.0:_ZN5boost6python9converter23expected_pytype_for_argIR6InterpE10get_pytypeEv
librs274.so.0:_ZN5boost6python9converter23expected_pytype_for_argIR7EmcPoseE10get_pytypeEv
librs274.so.0:_ZN5boost6python9converter23expected_pytype_for_argIRK11PmCartesianE10get_pytypeEv
librs274.so.0:_ZN5boost6python9converter23expected_pytype_for_argIRK12block_structE10get_pytypeEv
librs274.so.0:_ZN5boost6python9converter23expected_pytype_for_argIRK14context_structE10get_pytypeEv
librs274.so.0:_ZN5boost6python9converter23expected_pytype_for_argIRK16CANON_TOOL_TABLEE10get_pytypeEv
librs274.so.0:_ZN5boost6python9converter23expected_pytype_for_argIRK6InterpE10get_pytypeEv
librs274.so.0:_ZN5boost6python9converter23expected_pytype_for_argIRK7EmcPoseE10get_pytypeEv
librs274.so.0:_ZN5boost6python9converter23expected_pytype_for_argIRKP12remap_structE10get_pytypeEv
librs274.so.0:_ZN5boost6python9converter23expected_pytype_for_argIRKPKcE10get_pytypeEv
librs274.so.0:_ZN5boost6python9converter23expected_pytype_for_argIRKSt3mapIPKc22parameter_value_struct10nocase_cmpSaISt4pairIKS5_S6_EEEE10get_pytypeEv
librs274.so.0:_ZN5boost6python9converter23expected_pytype_for_argIRKSt4pairIKPKc12remap_structEE10get_pytypeEv
librs274.so.0:_ZN5boost6python9converter23expected_pytype_for_argIRKSt4pairIKPKc22parameter_value_structEE10get_pytypeEv
librs274.so.0:_ZN5boost6python9converter23expected_pytype_for_argIRKSt6bitsetILm29EEE10get_pytypeEv
librs274.so.0:_ZN5boost6python9converter23expected_pytype_for_argIRKbE10get_pytypeEv
librs274.so.0:_ZN5boost6python9converter23expected_pytype_for_argIRKdE10get_pytypeEv
librs274.so.0:_ZN5boost6python9converter23expected_pytype_for_argIRKhE10get_pytypeEv
librs274.so.0:_ZN5boost6python9converter23expected_pytype_for_argIRKiE10get_pytypeEv
librs274.so.0:_ZN5boost6python9converter23expected_pytype_for_argIRKjE10get_pytypeEv
librs274.so.0:_ZN5boost6python9converter23expected_pytype_for_argIRKlE10get_pytypeEv
librs274.so.0:_ZN5boost6python9converter23expected_pytype_for_argIRN10pyplusplus10containers12static_sized9array_1_tI12block_structLm10EEEE10get_pytypeEv
librs274.so.0:_ZN5boost6python9converter23expected_pytype_for_argIRN10pyplusplus10containers12static_sized9array_1_tI14context_structLm10EEEE10get_pytypeEv
librs274.so.0:_ZN5boost6python9converter23expected_pytype_for_argIRN10pyplusplus10containers12static_sized9array_1_tI16CANON_TOOL_TABLELm1001EEEE10get_pytypeEv
librs274.so.0:_ZN5boost6python9converter23expected_pytype_for_argIRN10pyplusplus10containers12static_sized9array_1_tIdLm30EEEE10get_pytypeEv
librs274.so.0:_ZN5boost6python9converter23expected_pytype_for_argIRN10pyplusplus10containers12static_sized9array_1_tIdLm5602EEEE10get_pytypeEv
librs274.so.0:_ZN5boost6python9converter23expected_pytype_for_argIRN10pyplusplus10containers12static_sized9array_1_tIdLm5EEEE10get_pytypeEv
librs274.so.0:_ZN5boost6python9converter23expected_pytype_for_argIRN10pyplusplus10containers12static_sized9array_1_tIdLm8EEEE10get_pytypeEv
librs274.so.0:_ZN5boost6python9converter23expected_pytype_for_argIRN10pyplusplus10containers12static_sized9array_1_tIiLm10EEEE10get_pytypeEv
librs274.so.0:_ZN5boost6python9converter23expected_pytype_for_argIRN10pyplusplus10containers12static_sized9array_1_tIiLm11EEEE10get_pytypeEv
librs274.so.0:_ZN5boost6python9converter23expected_pytype_for_argIRN10pyplusplus10containers12static_sized9array_1_tIiLm17EEEE10get_pytypeEv
librs274.so.0:_ZN5boost6python9converter23expected_pytype_for_argIRNS0_7objects14iterator_rangeINS0_25return_internal_referenceILm1ENS0_21default_call_policiesEEESt17_Rb_tree_iteratorISt4pairIKPKc12remap_structEEEEE10get_pytypeEv
librs274.so.0:_ZN5boost6python9converter23expected_pytype_for_argIRNS0_7objects14iterator_rangeINS0_25return_internal_referenceILm1ENS0_21default_call_policiesEEESt17_Rb_tree_iteratorISt4pairIKPKc22parameter_value_structEEEEE10get_pytypeEv
librs274.so.0:_ZN5boost6python9converter23expected_pytype_for_argIRP12remap_structE10get_pytypeEv
librs274.so.0:_ZN5boost6python9converter23expected_pytype_for_argIRPKcE10get_pytypeEv
librs274.so.0:_ZN5boost6python9converter23expected_pytype_for_argIRSt3mapIPKc12remap_struct10nocase_cmpSaISt4pairIKS5_S6_EEEE10get_pytypeEv
librs274.so.0:_ZN5boost6python9converter23expected_pytype_for_argIRSt3mapIPKc22parameter_value_struct10nocase_cmpSaISt4pairIKS5_S6_EEEE10get_pytypeEv
librs274.so.0:_ZN5boost6python9converter23expected_pytype_for_argIRSt4pairIKPKc12remap_structEE10get_pytypeEv
librs274.so.0:_ZN5boost6python9converter23expected_pytype_for_argIRSt4pairIKPKc22parameter_value_structEE10get_pytypeEv
librs274.so.0:_ZN5boost6python9converter23expected_pytype_for_argIRSt6bitsetILm29EEE10get_pytypeEv
librs274.so.0:_ZN5boost6python9converter23expected_pytype_for_argIRbE10get_pytypeEv
librs274.so.0:_ZN5boost6python9converter23expected_pytype_for_argIRdE10get_pytypeEv
librs274.so.0:_ZN5boost6python9converter23expected_pytype_for_argIRhE10get_pytypeEv
librs274.so.0:_ZN5boost6python9converter23expected_pytype_for_argIRiE10get_pytypeEv
librs274.so.0:_ZN5boost6python9converter23expected_pytype_for_argIRjE10get_pytypeEv
librs274.so.0:_ZN5boost6python9converter23expected_pytype_for_argIRlE10get_pytypeEv
librs274.so.0:_ZN5boost6python9converter23expected_pytype_for_argISt6vectorI13CONTROL_POINTSaIS4_EEE10get_pytypeEv
librs274.so.0:_ZN5boost6python9converter23expected_pytype_for_argIbE10get_pytypeEv
librs274.so.0:_ZN5boost6python9converter23expected_pytype_for_argIdE10get_pytypeEv
librs274.so.0:_ZN5boost6python9converter23expected_pytype_for_argIhE10get_pytypeEv
librs274.so.0:_ZN5boost6python9converter23expected_pytype_for_argIiE10get_pytypeEv
librs274.so.0:_ZN5boost6python9converter23expected_pytype_for_argIjE10get_pytypeEv
librs274.so.0:_ZN5boost6python9converter23expected_pytype_for_argImE10get_pytypeEv
librs274.so.0:_ZN5boost6python9converter23expected_pytype_for_argIvE10get_pytypeEv
librs274.so.0:_ZN5boost6python9converter32expected_from_python_type_directI10ParamClassE10get_pytypeEv
librs274.so.0:_ZN5boost6python9converter32expected_from_python_type_directI11PmCartesianE10get_pytypeEv
librs274.so.0:_ZN5boost6python9converter32expected_from_python_type_directI12block_structE10get_pytypeEv
librs274.so.0:_ZN5boost6python9converter32expected_from_python_type_directI12remap_structE10get_pytypeEv
librs274.so.0:_ZN5boost6python9converter32expected_from_python_type_directI14context_structE10get_pytypeEv
librs274.so.0:_ZN5boost6python9converter32expected_from_python_type_directI16CANON_TOOL_TABLEE10get_pytypeEv
librs274.so.0:_ZN5boost6python9converter32expected_from_python_type_directI20InterpreterExceptionE10get_pytypeEv
librs274.so.0:_ZN5boost6python9converter32expected_from_python_type_directI22parameter_value_structE10get_pytypeEv
librs274.so.0:_ZN5boost6python9converter32expected_from_python_type_directI6InterpE10get_pytypeEv
librs274.so.0:_ZN5boost6python9converter32expected_from_python_type_directI7EmcPoseE10get_pytypeEv
librs274.so.0:_ZN5boost6python9converter32expected_from_python_type_directIN10pyplusplus10containers12static_sized9array_1_tI12block_structLm10EEEE10get_pytypeEv
librs274.so.0:_ZN5boost6python9converter32expected_from_python_type_directIN10pyplusplus10containers12static_sized9array_1_tI14context_structLm10EEEE10get_pytypeEv
librs274.so.0:_ZN5boost6python9converter32expected_from_python_type_directIN10pyplusplus10containers12static_sized9array_1_tI16CANON_TOOL_TABLELm1001EEEE10get_pytypeEv
librs274.so.0:_ZN5boost6python9converter32expected_from_python_type_directIN10pyplusplus10containers12static_sized9array_1_tIdLm30EEEE10get_pytypeEv
librs274.so.0:_ZN5boost6python9converter32expected_from_python_type_directIN10pyplusplus10containers12static_sized9array_1_tIdLm5602EEEE10get_pytypeEv
librs274.so.0:_ZN5boost6python9converter32expected_from_python_type_directIN10pyplusplus10containers12static_sized9array_1_tIdLm5EEEE10get_pytypeEv
librs274.so.0:_ZN5boost6python9converter32expected_from_python_type_directIN10pyplusplus10containers12static_sized9array_1_tIdLm8EEEE10get_pytypeEv
librs274.so.0:_ZN5boost6python9converter32expected_from_python_type_directIN10pyplusplus10containers12static_sized9array_1_tIiLm10EEEE10get_pytypeEv
librs274.so.0:_ZN5boost6python9converter32expected_from_python_type_directIN10pyplusplus10containers12static_sized9array_1_tIiLm11EEEE10get_pytypeEv
librs274.so.0:_ZN5boost6python9converter32expected_from_python_type_directIN10pyplusplus10containers12static_sized9array_1_tIiLm17EEEE10get_pytypeEv
librs274.so.0:_ZN5boost6python9converter32expected_from_python_type_directINS0_7objects14iterator_rangeINS0_25return_internal_referenceILm1ENS0_21default_call_policiesEEESt17_Rb_tree_iteratorISt4pairIKPKc12remap_structEEEEE10get_pytypeEv
librs274.so.0:_ZN5boost6python9converter32expected_from_python_type_directINS0_7objects14iterator_rangeINS0_25return_internal_referenceILm1ENS0_21default_call_policiesEEESt17_Rb_tree_iteratorISt4pairIKPKc22parameter_value_structEEEEE10get_pytypeEv
librs274.so.0:_ZN5boost6python9converter32expected_from_python_type_directISt3mapIPKc12remap_struct10nocase_cmpSaISt4pairIKS5_S6_EEEE10get_pytypeEv
librs274.so.0:_ZN5boost6python9converter32expected_from_python_type_directISt3mapIPKc22parameter_value_struct10nocase_cmpSaISt4pairIKS5_S6_EEEE10get_pytypeEv
librs274.so.0:_ZN5boost6python9converter32expected_from_python_type_directISt4pairIKPKc12remap_structEE10get_pytypeEv
librs274.so.0:_ZN5boost6python9converter32expected_from_python_type_directISt4pairIKPKc22parameter_value_structEE10get_pytypeEv
librs274.so.0:_ZN5setupC1Ev
librs274.so.0:_ZN5setupC2Ev
librs274.so.0:_ZN5setupD1Ev
librs274.so.0:_ZN5setupD2Ev
librs274.so.0:_ZN6Interp10arc_data_rEiidddddiPdS0_Pid
librs274.so.0:_ZN6Interp10call_levelEv
librs274.so.0:_ZN6Interp10cycle_feedEP12block_struct11CANON_PLANEddd
librs274.so.0:_ZN6Interp10error_textEiPcm
librs274.so.0:_ZN6Interp10init_blockEP12block_struct
librs274.so.0:_ZN6Interp10isreadonlyEi
librs274.so.0:_ZN6Interp10parse_lineEPcP12block_structP5setup
librs274.so.0:_ZN6Interp10precedenceEi
librs274.so.0:_ZN6Interp10py_executeEPKcb
librs274.so.0:_ZN6Interp10read_caratEPcPiP12block_structPd
librs274.so.0:_ZN6Interp10read_itemsEP12block_structPcPd
librs274.so.0:_ZN6Interp10read_unaryEPcPiPdS2_
librs274.so.0:_ZN6Interp10stack_nameEiPcm
librs274.so.0:_ZN6Interp10update_tagER8StateTag
librs274.so.0:_ZN6Interp11check_itemsEP12block_structP5setup
librs274.so.0:_ZN6Interp11convert_arcEiP12block_structP5setup
librs274.so.0:_ZN6Interp11convert_g7xEiP12block_structP5setup
librs274.so.0:_ZN6Interp11enter_remapEv
librs274.so.0:_ZN6Interp11gen_m_codesEPiS0_RNSt7__cxx1112basic_stringIcSt11char_traitsIcESaIcEEE
librs274.so.0:_ZN6Interp11leave_remapEv
librs274.so.0:_ZN6Interp11line_lengthEv
librs274.so.0:_ZN6Interp11parse_remapEPKci
librs274.so.0:_ZN6Interp11read_atsignEPcPiP12block_structPd
librs274.so.0:_ZN6Interp11read_dollarEPcPiP12block_structPd
librs274.so.0:_ZN6Interp11read_inputsEP5setup
librs274.so.0:_ZN6Interp11unwind_callEiPKciS1_
librs274.so.0:_ZN6Interp12active_modesEPiS0_PdRK8StateTag
librs274.so.0:_ZN6Interp12arc_data_ijkEiiddddiddiPdS0_Piddd
librs274.so.0:_ZN6Interp12convert_arc2EiP12block_structP5setupPdS4_S4_ddddddddddd
librs274.so.0:_ZN6Interp12convert_homeEiP12block_structP5setup
librs274.so.0:_ZN6Interp12convert_stopEP12block_structP5setup
librs274.so.0:_ZN6Interp12execute_callEP5setupP14context_structi
librs274.so.0:_ZN6Interp12gen_settingsEPiS0_PdS1_RNSt7__cxx1112basic_stringIcSt11char_traitsIcESaIcEEE
librs274.so.0:_ZN6Interp12read_commentEPcPiP12block_structPd
librs274.so.0:_ZN6Interp12set_loglevelEi
librs274.so.0:_ZN6Interp13check_g_codesEP12block_structP5setup
librs274.so.0:_ZN6Interp13check_m_codesEP12block_struct
librs274.so.0:_ZN6Interp13convert_cycleEiP12block_structP5setup
librs274.so.0:_ZN6Interp13convert_dwellEP5setupd
librs274.so.0:_ZN6Interp13convert_nurbsEiP12block_structP5setup
librs274.so.0:_ZN6Interp13convert_probeEP12block_structiP5setup
librs274.so.0:_ZN6Interp13convert_setupEP12block_structP5setup
librs274.so.0:_ZN6Interp13convert_speedEiP12block_structP5setup
librs274.so.0:_ZN6Interp13enhance_blockEP12block_structP5setup
librs274.so.0:_ZN6Interp13enter_contextEP5setupP12block_struct
librs274.so.0:_ZN6Interp13execute_blockEP12block_structP5setup
librs274.so.0:_ZN6Interp13execute_unaryEPdi
librs274.so.0:_ZN6Interp13find_ngc_fileEP5setupPKcPc
librs274.so.0:_ZN6Interp13find_relativeEdddddddddPdS0_S0_S0_S0_S0_S0_S0_S0_P5setup
librs274.so.0:_ZN6Interp13getSavedErrorEv
librs274.so.0:_ZN6Interp13interp_statusEi
librs274.so.0:_ZN6Interp13is_pycallableEP5setupPKcS3_
librs274.so.0:_ZN6Interp13leave_contextEP5setupb
librs274.so.0:_ZN6Interp13read_n_numberEPcPiP12block_struct
librs274.so.0:_ZN6Interp13read_one_itemEPcPiP12block_structPd
librs274.so.0:_ZN6Interp13save_settingsEP5setup
librs274.so.0:_ZN6Interp13setSavedErrorEPKc
librs274.so.0:_ZN6Interp13unwrap_rotaryEPddddc
librs274.so.0:_ZN6Interp13write_g_codesEP12block_structP5setup
librs274.so.0:_ZN6Interp13write_m_codesEP12block_structP5setup
librs274.so.0:_ZN6Interp14active_g_codesEPi
librs274.so.0:_ZN6Interp14active_m_codesEPi
librs274.so.0:_ZN6Interp14add_parametersEP5setupP12block_structPc
librs274.so.0:_ZN6Interp14convert_motionEiP12block_structP5setup
librs274.so.0:_ZN6Interp14convert_splineEiP12block_structP5setup
librs274.so.0:_ZN6Interp14cycle_traverseEP12block_struct11CANON_PLANEddd
librs274.so.0:_ZN6Interp14execute_binaryEPdiS0_
librs274.so.0:_ZN6Interp14execute_returnEP5setupP14context_structi
librs274.so.0:_ZN6Interp14has_user_mcodeEP5setupP12block_struct
librs274.so.0:_ZN6Interp14read_operationEPcPiS1_
librs274.so.0:_ZN6Interp14read_parameterEPcPiPdS2_b
librs274.so.0:_ZN6Interp14read_semicolonEPcPiP12block_structPd
librs274.so.0:_ZN6Interp14remap_finishedEi
librs274.so.0:_ZN6Interp14set_probe_dataEP5setup
librs274.so.0:_ZN6Interp14write_settingsEP5setup
librs274.so.0:_ZN6Interp15active_settingsEPd
librs274.so.0:_ZN6Interp15add_named_paramEPKci
librs274.so.0:_ZN6Interp15arc_data_comp_rEiiiddddddiPdS0_Pid
librs274.so.0:_ZN6Interp15control_back_toEP12block_structP5setup
librs274.so.0:_ZN6Interp15convert_commentEPcb
librs274.so.0:_ZN6Interp15convert_modal_0EiP12block_structP5setup
librs274.so.0:_ZN6Interp15execute_binary1EPdiS0_
librs274.so.0:_ZN6Interp15execute_binary2EPdiS0_
librs274.so.0:_ZN6Interp15fetch_hal_paramEPKcPiPd
librs274.so.0:_ZN6Interp15fetch_ini_paramEPKcPiPd
librs274.so.0:_ZN6Interp15find_arc_lengthEdddddiddd
librs274.so.0:_ZN6Interp15find_remappingsEP12block_structP5setup
librs274.so.0:_ZN6Interp15find_tool_indexEP5setupiPi
librs274.so.0:_ZN6Interp15gen_restore_cmdEPiS0_PdRK8StateTagRNSt7__cxx1112basic_stringIcSt11char_traitsIcESaIcEEE
librs274.so.0:_ZN6Interp15load_tool_tableEv
librs274.so.0:_ZN6Interp15print_state_tagERK8StateTag
librs274.so.0:_ZN6Interp15read_real_valueEPcPiPdS2_
librs274.so.0:_ZN6Interp15save_parametersEPKcPKd
librs274.so.0:_ZN6Interp15sequence_numberEv
librs274.so.0:_ZN6Interp15write_state_tagEP12block_structP5setupR8StateTag
librs274.so.0:_ZN6Interp16comp_get_currentEP5setupPdS2_S2_
librs274.so.0:_ZN6Interp16comp_set_currentEP5setupddd
librs274.so.0:_ZN6Interp16convert_cycle_uvEiP12block_structP5setup
librs274.so.0:_ZN6Interp16convert_cycle_vwEiP12block_structP5setup
librs274.so.0:_ZN6Interp16convert_cycle_wuEiP12block_structP5setup
librs274.so.0:_ZN6Interp16convert_cycle_xyEiP12block_structP5setup
librs274.so.0:_ZN6Interp16convert_cycle_yzEiP12block_structP5setup
librs274.so.0:_ZN6Interp16convert_cycle_zxEiP12block_structP5setup
librs274.so.0:_ZN6Interp16convert_savehomeEiP12block_structP5setup
librs274.so.0:_ZN6Interp16convert_straightEiP12block_structP5setup
librs274.so.0:_ZN6Interp16find_named_paramEPKcPiPd
librs274.so.0:_ZN6Interp16find_tool_pocketEP5setupiPi
librs274.so.0:_ZN6Interp16handler_returnedEP5setupP14context_structPKcb
librs274.so.0:_ZN6Interp16read_real_numberEPcPiPd
librs274.so.0:_ZN6Interp16restore_from_tagERK8StateTag
librs274.so.0:_ZN6Interp16restore_settingsEP5setupi
librs274.so.0:_ZN6Interp17arc_data_comp_ijkEiiidddddiddiPdS0_Piddd
librs274.so.0:_ZN6Interp17check_other_codesEP12block_struct
librs274.so.0:_ZN6Interp17convert_arc_comp1EiP12block_structP5setupddddddddddd
librs274.so.0:_ZN6Interp17convert_arc_comp2EiP12block_structP5setupddddddddddd
librs274.so.0:_ZN6Interp17convert_cycle_g73EP12block_struct11CANON_PLANEdddddd
librs274.so.0:_ZN6Interp17convert_cycle_g81EP12block_struct11CANON_PLANEdddd
librs274.so.0:_ZN6Interp17convert_cycle_g82EP12block_struct11CANON_PLANEddddd
librs274.so.0:_ZN6Interp17convert_cycle_g83EP12block_struct11CANON_PLANEdddddd
librs274.so.0:_ZN6Interp17convert_cycle_g85EP12block_struct11CANON_PLANEddddd
librs274.so.0:_ZN6Interp17convert_cycle_g86EP12block_struct11CANON_PLANEddddd15CANON_DIRECTIONi
librs274.so.0:_ZN6Interp17convert_cycle_g87EP12block_struct11CANON_PLANEdddddddd15CANON_DIRECTIONi
librs274.so.0:_ZN6Interp17convert_cycle_g88EP12block_struct11CANON_PLANEdddd15CANON_DIRECTIONi
librs274.so.0:_ZN6Interp17convert_cycle_g89EP12block_struct11CANON_PLANEddddd
librs274.so.0:_ZN6Interp17convert_feed_modeEiP5setup
librs274.so.0:_ZN6Interp17convert_feed_rateEP12block_structP5setup
librs274.so.0:_ZN6Interp17convert_set_planeEiP5setup
librs274.so.0:_ZN6Interp17loop_to_beginningEP5setup
librs274.so.0:_ZN6Interp17remap_in_progressEPKc
librs274.so.0:_ZN6Interp17store_named_paramEP5setupPKcdi
librs274.so.0:_ZN6Interp18close_and_downcaseEPc
librs274.so.0:_ZN6Interp18control_find_owordEP12block_structP5setupPP13offset_struct
librs274.so.0:_ZN6Interp18convert_setup_toolEP12block_structP5setup
librs274.so.0:_ZN6Interp18lookup_named_paramEPKcdPd
librs274.so.0:_ZN6Interp18read_integer_valueEPcPiS1_Pd
librs274.so.0:_ZN6Interp18restore_parametersEPKc
librs274.so.0:_ZN6Interp19comp_get_programmedEP5setupPdS2_S2_
librs274.so.0:_ZN6Interp19comp_set_programmedEP5setupddd
librs274.so.0:_ZN6Interp19control_save_offsetEP12block_structP5setup
librs274.so.0:_ZN6Interp19convert_tool_changeEP5setup
librs274.so.0:_ZN6Interp19convert_tool_selectEP12block_structP5setup
librs274.so.0:_ZN6Interp19init_readonly_paramEPKcdi
librs274.so.0:_ZN6Interp19set_tool_parametersEv
librs274.so.0:_ZN6Interp20convert_axis_offsetsEiP12block_structP5setup
librs274.so.0:_ZN6Interp20convert_control_modeEiddP5setup
librs274.so.0:_ZN6Interp20convert_length_unitsEiP5setup
librs274.so.0:_ZN6Interp20convert_retract_modeEiP5setup
librs274.so.0:_ZN6Interp20convert_spindle_modeEiP12block_structP5setup
librs274.so.0:_ZN6Interp20find_straight_lengthEdddddddddddddddddd
librs274.so.0:_ZN6Interp20init_tool_parametersEv
librs274.so.0:_ZN6Interp20issue_straight_indexEiidiP5setup
librs274.so.0:_ZN6Interp20read_named_parameterEPcPiPdS2_b
librs274.so.0:_ZN6Interp20read_operation_unaryEPcPiS1_
librs274.so.0:_ZN6Interp20read_real_expressionEPcPiPdS2_
librs274.so.0:_ZN6Interp20set_loop_on_main_m99Eb
librs274.so.0:_ZN6Interp21check_g74_g84_spindleE6GCodes15CANON_DIRECTION
librs274.so.0:_ZN6Interp21convert_cycle_g74_g84EP12block_struct11CANON_PLANEdddd15CANON_DIRECTION21CANON_SPEED_FEED_MODEidi
librs274.so.0:_ZN6Interp21convert_distance_modeEiP5setup
librs274.so.0:_ZN6Interp21convert_param_commentEPcS0_i
librs274.so.0:_ZN6Interp21convert_remapped_codeEP12block_structP5setupici
librs274.so.0:_ZN6Interp21free_named_parametersEP14context_struct
librs274.so.0:_ZN6Interp21init_named_parametersEv
librs274.so.0:_ZN6Interp21inverse_time_rate_arcEdddddidddP12block_structP5setup
librs274.so.0:_ZN6Interp21read_integer_unsignedEPcPiS1_
librs274.so.0:_ZN6Interp21write_canon_state_tagEP12block_structP5setup
librs274.so.0:_ZN6Interp22convert_g92_is_appliedEiP12block_structP5setup
librs274.so.0:_ZN6Interp22convert_straight_comp1EiP12block_structP5setupddddddddd
librs274.so.0:_ZN6Interp22convert_straight_comp2EiP12block_structP5setupddddddddd
librs274.so.0:_ZN6Interp22find_current_in_systemEP5setupiPdS2_S2_S2_S2_S2_S2_S2_S2_
librs274.so.0:_ZN6Interp22read_parameter_settingEPcPiP12block_structPd
librs274.so.0:_ZN6Interp23convert_threading_cycleEP12block_structP5setupddd
librs274.so.0:_ZN6Interp23default_tool_parametersEv
librs274.so.0:_ZN6Interp23move_endpoint_and_flushEP5setupdd
librs274.so.0:_ZN6Interp23refresh_actual_positionEP5setup
librs274.so.0:_ZN6Interp24convert_straight_indexerEiiP12block_structP5setup
librs274.so.0:_ZN6Interp24read_bracketed_parameterEPcPiPdS2_b
librs274.so.0:_ZN6Interp25convert_control_functionsEP12block_structP5setup
librs274.so.0:_ZN6Interp25convert_coordinate_systemEiP5setup
librs274.so.0:_ZN6Interp25convert_ijk_distance_modeEiP5setup
librs274.so.0:_ZN6Interp26convert_tool_length_offsetEiP12block_structP5setup
librs274.so.0:_ZN6Interp26inverse_time_rate_straightEdddddddddP12block_structP5setup
librs274.so.0:_ZN6Interp27convert_cutter_compensationEiP12block_structP5setup
librs274.so.0:_ZN6Interp27convert_lathe_diameter_modeEiP12block_structP5setup
librs274.so.0:_ZN6Interp28init_python_predef_parameterEPKc
librs274.so.0:_ZN6Interp28read_named_parameter_settingEPcPiPS0_Pd
librs274.so.0:_ZN6Interp30convert_cutter_compensation_onEiP12block_structP5setup
librs274.so.0:_ZN6Interp31convert_cutter_compensation_offEP5setup
librs274.so.0:_ZN6Interp34find_current_in_system_without_tloEP5setupiPdS2_S2_S2_S2_S2_S2_S2_S2_
librs274.so.0:_ZN6Interp4exitEv
librs274.so.0:_ZN6Interp4initEv
librs274.so.0:_ZN6Interp4openEPKc
librs274.so.0:_ZN6Interp4readEPKc
librs274.so.0:_ZN6Interp4readEv
librs274.so.0:_ZN6Interp5_readEPKc
librs274.so.0:_ZN6Interp5closeEv
librs274.so.0:_ZN6Interp5doLogEjPKciS1_z
librs274.so.0:_ZN6Interp5resetEv
librs274.so.0:_ZN6Interp5synchEv
librs274.so.0:_ZN6Interp6pycallEP5setupP14context_structPKcS5_i
librs274.so.0:_ZN6Interp6read_aEPcPiP12block_structPd
librs274.so.0:_ZN6Interp6read_bEPcPiP12block_structPd
librs274.so.0:_ZN6Interp6read_cEPcPiP12block_structPd
librs274.so.0:_ZN6Interp6read_dEPcPiP12block_structPd
librs274.so.0:_ZN6Interp6read_eEPcPiP12block_structPd
librs274.so.0:_ZN6Interp6read_fEPcPiP12block_structPd
librs274.so.0:_ZN6Interp6read_gEPcPiP12block_structPd
librs274.so.0:_ZN6Interp6read_hEPcPiP12block_structPd
librs274.so.0:_ZN6Interp6read_iEPcPiP12block_structPd
librs274.so.0:_ZN6Interp6read_jEPcPiP12block_structPd
librs274.so.0:_ZN6Interp6read_kEPcPiP12block_structPd
librs274.so.0:_ZN6Interp6read_lEPcPiP12block_structPd
librs274.so.0:_ZN6Interp6read_mEPcPiP12block_structPd
librs274.so.0:_ZN6Interp6read_oEPcPiP12block_structPd
librs274.so.0:_ZN6Interp6read_pEPcPiP12block_structPd
librs274.so.0:_ZN6Interp6read_qEPcPiP12block_structPd
librs274.so.0:_ZN6Interp6read_rEPcPiP12block_structPd
librs274.so.0:_ZN6Interp6read_sEPcPiP12block_structPd
librs274.so.0:_ZN6Interp6read_tEPcPiP12block_structPd
librs274.so.0:_ZN6Interp6read_uEPcPiP12block_structPd
librs274.so.0:_ZN6Interp6read_vEPcPiP12block_structPd
librs274.so.0:_ZN6Interp6read_wEPcPiP12block_structPd
librs274.so.0:_ZN6Interp6read_xEPcPiP12block_structPd
librs274.so.0:_ZN6Interp6read_yEPcPiP12block_structPd
librs274.so.0:_ZN6Interp6read_zEPcPiP12block_structPd
librs274.so.0:_ZN6Interp6rotateEPdS0_d
librs274.so.0:_ZN6Interp7executeEPKc
librs274.so.0:_ZN6Interp7executeEPKci
librs274.so.0:_ZN6Interp7executeEv
librs274.so.0:_ZN6Interp8_executeEPKc
librs274.so.0:_ZN6Interp8findFileEPcS0_S0_
librs274.so.0:_ZN6Interp8ini_loadEPKc
librs274.so.0:_ZN6Interp8inicheckEv
librs274.so.0:_ZN6Interp8on_abortEiPKc
librs274.so.0:_ZN6Interp8setErrorEPKcz
librs274.so.0:_ZN6Interp9arc_axis1Ei
librs274.so.0:_ZN6Interp9arc_axis2Ei
librs274.so.0:_ZN6Interp9convert_gEP12block_structP5setup
librs274.so.0:_ZN6Interp9convert_mEP12block_structP5setup
librs274.so.0:_ZN6Interp9file_nameEPcm
librs274.so.0:_ZN6Interp9find_endsEP12block_structP5setupPdS4_S4_S4_S4_S4_S4_S4_S4_
librs274.so.0:_ZN6Interp9find_turnEddddidd
librs274.so.0:_ZN6Interp9line_textEPcm
librs274.so.0:_ZN6Interp9py_reloadEv
librs274.so.0:_ZN6Interp9read_atanEPcPiPdS2_
librs274.so.0:_ZN6Interp9read_nameEPcPiS0_
librs274.so.0:_ZN6Interp9read_textEPKcP8_IO_FILEPcS4_Pi
librs274.so.0:_ZN6Interp9remappingEPKc
librs274.so.0:_ZN6InterpC1Ev
librs274.so.0:_ZN6InterpC2Ev
librs274.so.0:_ZN6InterpD0Ev
librs274.so.0:_ZN6InterpD1Ev
librs274.so.0:_ZN6InterpD2Ev
librs274.so.0:_ZN8StateTagC1ERK11state_tag_t
librs274.so.0:_ZN8StateTagC1Ev
librs274.so.0:_ZN8StateTagC2ERK11state_tag_t
librs274.so.0:_ZN8StateTagC2Ev
librs274.so.0:_ZN9pycontextC1ERKS_
librs274.so.0:_ZN9pycontextC1Ev
librs274.so.0:_ZN9pycontextC2ERKS_
librs274.so.0:_ZN9pycontextC2Ev
librs274.so.0:_ZN9pycontextD1Ev
librs274.so.0:_ZN9pycontextD2Ev
librs274.so.0:_ZN9pycontextaSERKS_
librs274.so.0:_ZNK10ParamClass8namelistER14context_struct
librs274.so.0:_ZNK10ParamClassclEv
librs274.so.0:_ZNK10pyplusplus10containers12static_sized9array_1_tI12block_structLm10EE3lenEv
librs274.so.0:_ZNK10pyplusplus10containers12static_sized9array_1_tI12block_structLm10EE8item_refEm
librs274.so.0:_ZNK10pyplusplus10containers12static_sized9array_1_tI14context_structLm10EE3lenEv
librs274.so.0:_ZNK10pyplusplus10containers12static_sized9array_1_tI14context_structLm10EE8item_refEm
librs274.so.0:_ZNK10pyplusplus10containers12static_sized9array_1_tI16CANON_TOOL_TABLELm1001EE3lenEv
librs274.so.0:_ZNK10pyplusplus10containers12static_sized9array_1_tI16CANON_TOOL_TABLELm1001EE8item_refEm
librs274.so.0:_ZNK10pyplusplus10containers12static_sized9array_1_tIdLm30EE3lenEv
librs274.so.0:_ZNK10pyplusplus10containers12static_sized9array_1_tIdLm30EE8item_refEm
librs274.so.0:_ZNK10pyplusplus10containers12static_sized9array_1_tIdLm5602EE3lenEv
librs274.so.0:_ZNK10pyplusplus10containers12static_sized9array_1_tIdLm5602EE8item_refEm
librs274.so.0:_ZNK10pyplusplus10containers12static_sized9array_1_tIdLm5EE3lenEv
librs274.so.0:_ZNK10pyplusplus10containers12static_sized9array_1_tIdLm5EE8item_refEm
librs274.so.0:_ZNK10pyplusplus10containers12static_sized9array_1_tIdLm8EE3lenEv
librs274.so.0:_ZNK10pyplusplus10containers12static_sized9array_1_tIdLm8EE8item_refEm
librs274.so.0:_ZNK10pyplusplus10containers12static_sized9array_1_tIiLm10EE3lenEv
librs274.so.0:_ZNK10pyplusplus10containers12static_sized9array_1_tIiLm10EE8item_refEm
librs274.so.0:_ZNK10pyplusplus10containers12static_sized9array_1_tIiLm11EE3lenEv
librs274.so.0:_ZNK10pyplusplus10containers12static_sized9array_1_tIiLm11EE8item_refEm
librs274.so.0:_ZNK10pyplusplus10containers12static_sized9array_1_tIiLm17EE3lenEv
librs274.so.0:_ZNK10pyplusplus10containers12static_sized9array_1_tIiLm17EE8item_refEm
librs274.so.0:_ZNK8StateTag13get_state_tagEv
librs274.so.0:_ZNK8StateTag8is_validEv
librs274.so.0:makeInterp
libtooldata.so.0:_Z12tooldata_getP16CANON_TOOL_TABLEi
libtooldata.so.0:_Z12tooldata_put16CANON_TOOL_TABLEi
libtooldata.so.0:_Z13tooldata_initb
libtooldata.so.0:_Z13tooldata_loadPKcPPc
libtooldata.so.0:_Z13tooldata_savePKcPPc
libtooldata.so.0:_Z14tool_mmap_userv
libtooldata.so.0:_Z14tooldata_resetv
libtooldata.so.0:_Z15tool_mmap_closev
libtooldata.so.0:_Z15tooldata_set_db8tooldb_t
libtooldata.so.0:_Z16tooldata_db_initPci
libtooldata.so.0:_Z17tool_mmap_creatorPK13EMC_TOOL_STATi
libtooldata.so.0:_Z17tooldata_add_initi
libtooldata.so.0:_Z18tooldata_db_getallv
libtooldata.so.0:_Z18tooldata_db_notify13tool_notify_tii16CANON_TOOL_TABLE
libtooldata.so.0:_Z19tooldata_entry_initv
libtooldata.so.0:_Z19tooldata_read_entryPKcPPc
libtooldata.so.0:_Z23tooldata_last_index_getv
libtooldata.so.0:_Z23tooldata_last_index_seti
libtooldata.so.0:_Z24tooldata_format_toollineib16CANON_TOOL_TABLEPPcS0_
libtooldata.so.0:_Z28tooldata_find_index_for_tooli
libtooldata.so.0:_Z31tool_mmap_is_random_toolchangerv
